   1              		.cpu cortex-m4
   2              		.eabi_attribute 20, 1
   3              		.eabi_attribute 21, 1
   4              		.eabi_attribute 23, 3
   5              		.eabi_attribute 24, 1
   6              		.eabi_attribute 25, 1
   7              		.eabi_attribute 26, 1
   8              		.eabi_attribute 30, 6
   9              		.eabi_attribute 34, 1
  10              		.eabi_attribute 18, 4
  11              		.file	"MAYO.c"
  12              		.text
  13              	.Ltext0:
  14              		.cfi_sections	.debug_frame
  15              		.global	P1
  16              		.data
  17              		.align	2
  20              	P1:
  21 0000 1010061C 		.ascii	"\020\020\006\034\004\031\027\004\005\007\021\004\013"
  21      04191704 
  21      05071104 
  21      0B
  22 000d 100B0417 		.ascii	"\020\013\004\027\036\024\017\030\037\011\015\007\000"
  22      1E140F18 
  22      1F090D07 
  22      00
  23 001a 191A1501 		.ascii	"\031\032\025\001\031\006\026\033\002\025\027\030\021"
  23      1906161B 
  23      02151718 
  23      11
  24 0027 0E021102 		.ascii	"\016\002\021\002\010\022\022\036\025\007\001\034\010"
  24      0812121E 
  24      1507011C 
  24      08
  25 0034 18001802 		.ascii	"\030\000\030\002\002\011\015\026\012\036\021\000\016"
  25      02090D16 
  25      0A1E1100 
  25      0E
  26 0041 05081E12 		.ascii	"\005\010\036\022\013\007\013\023\005\024\023\001\010"
  26      0B070B13 
  26      05141301 
  26      08
  27 004e 081D0A01 		.ascii	"\010\035\012\001\021\033\005\036\016\034\035\027\005"
  27      111B051E 
  27      0E1C1D17 
  27      05
  28 005b 0F031713 		.ascii	"\017\003\027\023\026\033\012\001\003\023\012\023\037"
  28      161B0A01 
  28      03130A13 
  28      1F
  29 0068 1205180B 		.ascii	"\022\005\030\013\001\037\014\030\023\027\002\013\015"
  29      011F0C18 
  29      1317020B 
  29      0D
  30 0075 0608161A 		.ascii	"\006\010\026\032\030\005\037\022\023\026\006\000\012"
  30      18051F12 
  30      13160600 
  30      0A
  31 0082 050C0800 		.ascii	"\005\014\010\000\013\021\036\001\003\036\035\030\011"
  31      0B111E01 
  31      031E1D18 
  31      09
  32 008f 12150C12 		.ascii	"\022\025\014\022\032\026\023\003\011\022\005\032\010"
  32      1A161303 
  32      0912051A 
  32      08
  33 009c 0F081F1A 		.ascii	"\017\010\037\032\035\026\025\021\024\037\000\017\002"
  33      1D161511 
  33      141F000F 
  33      02
  34 00a9 1504070A 		.ascii	"\025\004\007\012\032\021\031\034\013\027\006\025\003"
  34      1A11191C 
  34      0B170615 
  34      03
  35 00b6 0E1C0716 		.ascii	"\016\034\007\026\000\021\026\023\011\032\034\021\020"
  35      00111613 
  35      091A1C11 
  35      10
  36 00c3 0C0B0016 		.ascii	"\014\013\000\026\017\015\014\015\013\010\024\023\023"
  36      0F0D0C0D 
  36      0B081413 
  36      13
  37 00d0 1C071E13 		.ascii	"\034\007\036\023\002\024\002\021\004\030\014\010\000"
  37      02140211 
  37      04180C08 
  37      00
  38 00dd 1F1E1716 		.ascii	"\037\036\027\026\020\027\015\035\020\014\011\011\006"
  38      10170D1D 
  38      100C0909 
  38      06
  39 00ea 1D13181D 		.ascii	"\035\023\030\035\013\004\035\021\036\006\037\010\031"
  39      0B041D11 
  39      1E061F08 
  39      19
  40 00f7 12120C0E 		.ascii	"\022\022\014\016\002\011\032\030\000\004\027\010\034"
  40      02091A18 
  40      00041708 
  40      1C
  41 0104 171B1E08 		.ascii	"\027\033\036\010\024\011\037\025\007\004\021\017\030"
  41      14091F15 
  41      0704110F 
  41      18
  42 0111 110C0E0C 		.ascii	"\021\014\016\014\011\035\013\016\024\014\032\025\017"
  42      091D0B0E 
  42      140C1A15 
  42      0F
  43 011e 171D1016 		.ascii	"\027\035\020\026\035\005\035\034\035\032\002\022\012"
  43      1D051D1C 
  43      1D1A0212 
  43      0A
  44 012b 1F1D0118 		.ascii	"\037\035\001\030\004\027\007\014\036\010\003\026\023"
  44      0417070C 
  44      1E080316 
  44      13
  45 0138 1C151D19 		.ascii	"\034\025\035\031\034\000\025\000\022\034\003\024\004"
  45      1C001500 
  45      121C0314 
  45      04
  46 0145 011D110B 		.ascii	"\001\035\021\013\037\013\000\037\007\020\031\024\023"
  46      1F0B001F 
  46      07101914 
  46      13
  47 0152 060A0000 		.ascii	"\006\012\000\000\004\003\036\020\002\017\006\024\021"
  47      04031E10 
  47      020F0614 
  47      11
  48 015f 1B1D1C0A 		.ascii	"\033\035\034\012\032\010\000\034\015\010\036\032\030"
  48      1A08001C 
  48      0D081E1A 
  48      18
  49 016c 1114021C 		.ascii	"\021\024\002\034\025\010\000\012\012\000\004\025\035"
  49      1508000A 
  49      0A000415 
  49      1D
  50 0179 1D0F1516 		.ascii	"\035\017\025\026\026\026\002\005\033\034\007\003\030"
  50      16160205 
  50      1B1C0703 
  50      18
  51 0186 091E1110 		.ascii	"\011\036\021\020\036\033\002\021\015\011\027\020\031"
  51      1E1B0211 
  51      0D091710 
  51      19
  52 0193 0F110005 		.ascii	"\017\021\000\005\004\033\024\002\036\002\025\036\036"
  52      041B1402 
  52      1E02151E 
  52      1E
  53 01a0 0D1C0F19 		.ascii	"\015\034\017\031\034\026\001\006\021\010\024\010\004"
  53      1C160106 
  53      11081408 
  53      04
  54 01ad 131F020E 		.ascii	"\023\037\002\016\014\027\017\031\016\017\020\017\036"
  54      0C170F19 
  54      0E0F100F 
  54      1E
  55 01ba 010B0602 		.ascii	"\001\013\006\002\025\002\036\020\020\014\014\030\013"
  55      15021E10 
  55      100C0C18 
  55      0B
  56 01c7 131D1117 		.ascii	"\023\035\021\027\004\002\033\003\025\034\030\037\025"
  56      04021B03 
  56      151C181F 
  56      15
  57 01d4 1909101E 		.ascii	"\031\011\020\036\017\027\011\015\011\034\026\027\015"
  57      0F17090D 
  57      091C1617 
  57      0D
  58 01e1 020B0D15 		.ascii	"\002\013\015\025\006\012\033\014\000\027\001\011\022"
  58      060A1B0C 
  58      00170109 
  58      12
  59 01ee 050B071E 		.ascii	"\005\013\007\036\015\025\017\015\027\002\017\037\011"
  59      0D150F0D 
  59      17020F1F 
  59      09
  60 01fb 1B141207 		.ascii	"\033\024\022\007\014\002\020\026\031\003\031\027\013"
  60      0C021016 
  60      19031917 
  60      0B
  61 0208 10120B1E 		.ascii	"\020\022\013\036\004\020\033\022\006\011\022\020\016"
  61      04101B12 
  61      06091210 
  61      0E
  62 0215 001D0004 		.ascii	"\000\035\000\004\027\022\033\003\025\011\017\015\004"
  62      17121B03 
  62      15090F0D 
  62      04
  63 0222 0C131219 		.ascii	"\014\023\022\031\011\001\003\002\004\036\013\034\012"
  63      09010302 
  63      041E0B1C 
  63      0A
  64 022f 16011303 		.ascii	"\026\001\023\003\037\035\023\022\037\034\000\036\007"
  64      1F1D1312 
  64      1F1C001E 
  64      07
  65 023c 070A0107 		.ascii	"\007\012\001\007\036\012\023\012\031\026\004\010\002"
  65      1E0A130A 
  65      19160408 
  65      02
  66 0249 12091714 		.ascii	"\022\011\027\024\025\012\006\014\005\024\012\003\026"
  66      150A060C 
  66      05140A03 
  66      16
  67 0256 00041B08 		.ascii	"\000\004\033\010\002\007\015\031\000\026\016\001\022"
  67      02070D19 
  67      00160E01 
  67      12
  68 0263 141F1107 		.ascii	"\024\037\021\007\003\013\011\015\034\032\016\006\037"
  68      030B090D 
  68      1C1A0E06 
  68      1F
  69 0270 07100B14 		.ascii	"\007\020\013\024\011\007\011\005\021\037\037\026\024"
  69      09070905 
  69      111F1F16 
  69      14
  70 027d 0E171219 		.ascii	"\016\027\022\031\022\023\033\031\003\037\024\000\025"
  70      12131B19 
  70      031F1400 
  70      15
  71 028a 17080C00 		.ascii	"\027\010\014\000\000\002\026\030\027\005\001\012\011"
  71      00021618 
  71      1705010A 
  71      09
  72 0297 120A1A02 		.ascii	"\022\012\032\002\022\011\000\027\034\003\010\022\010"
  72      12090017 
  72      1C030812 
  72      08
  73 02a4 13111D1C 		.ascii	"\023\021\035\034\014\016\014\035\020\001\015\036\013"
  73      0C0E0C1D 
  73      10010D1E 
  73      0B
  74 02b1 1014161C 		.ascii	"\020\024\026\034\023\000\024\023\002\024\000\004\033"
  74      13001413 
  74      02140004 
  74      1B
  75 02be 16030705 		.ascii	"\026\003\007\005\012\017\013\003\020\023\021\015\020"
  75      0A0F0B03 
  75      1013110D 
  75      10
  76 02cb 14090200 		.ascii	"\024\011\002\000\002\030\005\001\022\003\030\017\025"
  76      02180501 
  76      1203180F 
  76      15
  77 02d8 190D0D14 		.ascii	"\031\015\015\024\014\011\031\026\016\011\003\034\021"
  77      0C091916 
  77      0E09031C 
  77      11
  78 02e5 16091D0C 		.ascii	"\026\011\035\014\030\004\015\022\036\027\004\002\003"
  78      18040D12 
  78      1E170402 
  78      03
  79 02f2 150C1311 		.ascii	"\025\014\023\021\030\035\005\021\017\010\015\037\007"
  79      181D0511 
  79      0F080D1F 
  79      07
  80 02ff 18030000 		.ascii	"\030\003\000\000\026\021\027\021\027\037\034\036\001"
  80      16111711 
  80      171F1C1E 
  80      01
  81 030c 181A1313 		.ascii	"\030\032\023\023\025\030\033\022\014\033\035\027\022"
  81      15181B12 
  81      0C1B1D17 
  81      12
  82 0319 17181015 		.ascii	"\027\030\020\025\013\000\012\027\012\032\016\034\034"
  82      0B000A17 
  82      0A1A0E1C 
  82      1C
  83 0326 0E14051C 		.ascii	"\016\024\005\034\011\035\002\011\006\001\015\036\011"
  83      091D0209 
  83      06010D1E 
  83      09
  84 0333 0913130C 		.ascii	"\011\023\023\014\030\006\037\034\025\002\000\016\027"
  84      18061F1C 
  84      1502000E 
  84      17
  85 0340 1105191B 		.ascii	"\021\005\031\033\011\030\023\024\030\033\003\025\004"
  85      09181314 
  85      181B0315 
  85      04
  86 034d 191C101F 		.ascii	"\031\034\020\037\006\032\033\036\005\002\007\000\010"
  86      061A1B1E 
  86      05020700 
  86      08
  87 035a 0615080E 		.ascii	"\006\025\010\016\036\004\024\011\014\017\006\031\025"
  87      1E041409 
  87      0C0F0619 
  87      15
  88 0367 1B030008 		.ascii	"\033\003\000\010\032\025\007\023\006\035\007\012\025"
  88      1A150713 
  88      061D070A 
  88      15
  89 0374 17140719 		.ascii	"\027\024\007\031\015\001\017\013\024\013\026\005\013"
  89      0D010F0B 
  89      140B1605 
  89      0B
  90 0381 1F181305 		.ascii	"\037\030\023\005\037\012\007\030\000\036\024\012\022"
  90      1F0A0718 
  90      001E140A 
  90      12
  91 038e 190A1B04 		.ascii	"\031\012\033\004\024\003\031\024\002\031\006\015\021"
  91      14031914 
  91      0219060D 
  91      11
  92 039b 0B0C0E1E 		.ascii	"\013\014\016\036\015\025\027\022\026\013\003\014\007"
  92      0D151712 
  92      160B030C 
  92      07
  93 03a8 1D1D1F1F 		.ascii	"\035\035\037\037\031\003\000\002\032\031\027\017\031"
  93      19030002 
  93      1A19170F 
  93      19
  94 03b5 151E120B 		.ascii	"\025\036\022\013\006\011\026\026\003\015\013\014\023"
  94      06091616 
  94      030D0B0C 
  94      13
  95 03c2 1A0E140C 		.ascii	"\032\016\024\014\001\003\031\003\032\023\033\030\017"
  95      01031903 
  95      1A131B18 
  95      0F
  96 03cf 17060713 		.ascii	"\027\006\007\023\025\031\010\016\035\031\007\000\031"
  96      1519080E 
  96      1D190700 
  96      19
  97 03dc 1F100A1E 		.ascii	"\037\020\012\036\000\033\006\000\036\021\002\024\037"
  97      001B0600 
  97      1E110214 
  97      1F
  98 03e9 111D1205 		.ascii	"\021\035\022\005\036\031\031\000\015\011\034\034\023"
  98      1E191900 
  98      0D091C1C 
  98      13
  99 03f6 1609090A 		.ascii	"\026\011\011\012\034\022\006\023\007\022\001\021\021"
  99      1C120613 
  99      07120111 
  99      11
 100 0403 02111409 		.ascii	"\002\021\024\011\000\030\010\011\002\016\035\004\011"
 100      00180809 
 100      020E1D04 
 100      09
 101 0410 03081F17 		.ascii	"\003\010\037\027\035\017\036\004\021\037\021\022\020"
 101      1D0F1E04 
 101      111F1112 
 101      10
 102 041d 031D0616 		.ascii	"\003\035\006\026\013\035\013\035\021\013\035\003\003"
 102      0B1D0B1D 
 102      110B1D03 
 102      03
 103 042a 1C130D11 		.ascii	"\034\023\015\021\027\016\010\001\025\037\026\037\023"
 103      170E0801 
 103      151F161F 
 103      13
 104 0437 070C1308 		.ascii	"\007\014\023\010\004\000\004\030\034\032\020\032\020"
 104      04000418 
 104      1C1A101A 
 104      10
 105 0444 001A111F 		.ascii	"\000\032\021\037\001\017\013\037\007\032\010\011\004"
 105      010F0B1F 
 105      071A0809 
 105      04
 106 0451 030A0405 		.ascii	"\003\012\004\005\026\034\002\031\010\036\005\001\017"
 106      161C0219 
 106      081E0501 
 106      0F
 107 045e 06151016 		.ascii	"\006\025\020\026\033\005\023\017\012\013\030\006\023"
 107      1B05130F 
 107      0A0B1806 
 107      13
 108 046b 03121301 		.ascii	"\003\022\023\001\015\037\017\033\013\035\030\036\023"
 108      0D1F0F1B 
 108      0B1D181E 
 108      13
 109 0478 0D1A0E06 		.ascii	"\015\032\016\006\004\026\021\010\013\015\011\037\000"
 109      04161108 
 109      0B0D091F 
 109      00
 110 0485 1C071418 		.ascii	"\034\007\024\030\026\002\000\017\036\015\014\001\025"
 110      1602000F 
 110      1E0D0C01 
 110      15
 111 0492 161A070B 		.ascii	"\026\032\007\013\034\024\016\005\017\031\035\037\013"
 111      1C140E05 
 111      0F191D1F 
 111      0B
 112 049f 0E0C0F0E 		.ascii	"\016\014\017\016\022\000\033\036\020\037\034\001\030"
 112      12001B1E 
 112      101F1C01 
 112      18
 113 04ac 0F131217 		.ascii	"\017\023\022\027\004\003\035\021\017\035\021\034\023"
 113      04031D11 
 113      0F1D111C 
 113      13
 114 04b9 05100107 		.ascii	"\005\020\001\007\010\004\010\004\004\012\024\000\010"
 114      08040804 
 114      040A1400 
 114      08
 115 04c6 0E1D0717 		.ascii	"\016\035\007\027\003\032\015\012\035\022\024\010\034"
 115      031A0D0A 
 115      1D121408 
 115      1C
 116 04d3 0B0D0D13 		.ascii	"\013\015\015\023\023\034\034\030\023\001\011\037\004"
 116      131C1C18 
 116      1301091F 
 116      04
 117 04e0 0F1E011C 		.ascii	"\017\036\001\034\034\037\020\037\000\020\014\022\036"
 117      1C1F101F 
 117      00100C12 
 117      1E
 118 04ed 160A0210 		.ascii	"\026\012\002\020\010\030\017\026\007\035\021\015\000"
 118      08180F16 
 118      071D110D 
 118      00
 119 04fa 1E161C11 		.ascii	"\036\026\034\021\030\023\002\036\017\023\024\033\033"
 119      1813021E 
 119      0F13141B 
 119      1B
 120 0507 03000910 		.ascii	"\003\000\011\020\013\005\017\021\034\017\025\020\027"
 120      0B050F11 
 120      1C0F1510 
 120      17
 121 0514 000D1B0B 		.ascii	"\000\015\033\013\007\034\022\013\007\023\002\003\027"
 121      071C120B 
 121      07130203 
 121      17
 122 0521 191B0C10 		.ascii	"\031\033\014\020\032\032\034\013\017\022\015\023\011"
 122      1A1A1C0B 
 122      0F120D13 
 122      09
 123 052e 1919000B 		.ascii	"\031\031\000\013\001\016\003\026\016\025\017\031\036"
 123      010E0316 
 123      0E150F19 
 123      1E
 124 053b 01021208 		.ascii	"\001\002\022\010\031\004\030\004\021\010\002\005\033"
 124      19041804 
 124      11080205 
 124      1B
 125 0548 141B1709 		.ascii	"\024\033\027\011\013\022\020\006\034\026\003\031\034"
 125      0B121006 
 125      1C160319 
 125      1C
 126 0555 0A0F1B10 		.ascii	"\012\017\033\020\004\005\036\034\005\021\007\037\016"
 126      04051E1C 
 126      0511071F 
 126      0E
 127 0562 0F080B00 		.ascii	"\017\010\013\000\022\037\013\012\016\000\031\027\011"
 127      121F0B0A 
 127      0E001917 
 127      09
 128 056f 0D141916 		.ascii	"\015\024\031\026\027\037\014\001\021\001\012\020\014"
 128      171F0C01 
 128      11010A10 
 128      0C
 129 057c 13111718 		.ascii	"\023\021\027\030\010\030\025\022\024\000\003\031\014"
 129      08181512 
 129      14000319 
 129      0C
 130 0589 0D13050B 		.ascii	"\015\023\005\013\034\007\001\034\015\014\020\034\005"
 130      1C07011C 
 130      0D0C101C 
 130      05
 131 0596 060E1216 		.ascii	"\006\016\022\026\017\022\005\027\027\026\023\020\034"
 131      0F120517 
 131      17161310 
 131      1C
 132 05a3 061D0E10 		.ascii	"\006\035\016\020\000\031\001\011\016\022\026\012\017"
 132      00190109 
 132      0E12160A 
 132      0F
 133 05b0 171D1105 		.ascii	"\027\035\021\005\024\033\022\017\033\016\010\034\016"
 133      141B120F 
 133      1B0E081C 
 133      0E
 134 05bd 040A0A14 		.ascii	"\004\012\012\024\005\035\005\017\031\000\035\011\034"
 134      051D050F 
 134      19001D09 
 134      1C
 135 05ca 06030A11 		.ascii	"\006\003\012\021\030\016\036\013\007\011\004\011\031"
 135      180E1E0B 
 135      07090409 
 135      19
 136 05d7 101B1B09 		.ascii	"\020\033\033\011\036\034\020\022\006\035\035\020\011"
 136      1E1C1012 
 136      061D1D10 
 136      09
 137 05e4 14040612 		.ascii	"\024\004\006\022\002\030\011\012\032\026\004\001\033"
 137      0218090A 
 137      1A160401 
 137      1B
 138 05f1 061C0E12 		.ascii	"\006\034\016\022\016\005\031\000\026\002\014\031\036"
 138      0E051900 
 138      16020C19 
 138      1E
 139 05fe 00141F16 		.ascii	"\000\024\037\026\031\026\035\036\021\026\027\035\032"
 139      19161D1E 
 139      1116171D 
 139      1A
 140 060b 0A09100E 		.ascii	"\012\011\020\016\014\031\020\030\022\001\031\002\026"
 140      0C191018 
 140      12011902 
 140      16
 141 0618 07160000 		.ascii	"\007\026\000\000\020\025\010\026\014\012\026\000\021"
 141      10150816 
 141      0C0A1600 
 141      11
 142 0625 0108101A 		.ascii	"\001\010\020\032\034\001\026\013\012\023\016\002\023"
 142      1C01160B 
 142      0A130E02 
 142      13
 143 0632 081B1F08 		.ascii	"\010\033\037\010\017\005\033\013\006\011\033\032\014"
 143      0F051B0B 
 143      06091B1A 
 143      0C
 144 063f 1E131B03 		.ascii	"\036\023\033\003\024\020\031\015\022\016\026\005\014"
 144      1410190D 
 144      120E1605 
 144      0C
 145 064c 09110A19 		.ascii	"\011\021\012\031\022\002\012\015\002\013\015\031\003"
 145      12020A0D 
 145      020B0D19 
 145      03
 146 0659 130B0D01 		.ascii	"\023\013\015\001\022\030\030\032\010\001\011\036\023"
 146      1218181A 
 146      0801091E 
 146      13
 147 0666 030C1719 		.ascii	"\003\014\027\031\005\002\001\031\010\017\022\001\021"
 147      05020119 
 147      080F1201 
 147      11
 148 0673 000E1905 		.ascii	"\000\016\031\005\006\034\036\010\031\026\007\010\012"
 148      061C1E08 
 148      19160708 
 148      0A
 149 0680 1B13100F 		.ascii	"\033\023\020\017\011\000\025\023\016\032\036\034\035"
 149      09001513 
 149      0E1A1E1C 
 149      1D
 150 068d 08121819 		.ascii	"\010\022\030\031\006\024\011\012\002\030\025\020\012"
 150      0614090A 
 150      02181510 
 150      0A
 151 069a 16190002 		.ascii	"\026\031\000\002\037\024\030\004\006\006\010\015\015"
 151      1F141804 
 151      0606080D 
 151      0D
 152 06a7 19011C03 		.ascii	"\031\001\034\003\000\025\011\031\024\033\023\034\006"
 152      00150919 
 152      141B131C 
 152      06
 153 06b4 1F060B0D 		.ascii	"\037\006\013\015\007\017\035\004\013\026\003\013\024"
 153      070F1D04 
 153      0B16030B 
 153      14
 154 06c1 05141701 		.ascii	"\005\024\027\001\025\012\036\025\032\036\032\004\034"
 154      150A1E15 
 154      1A1E1A04 
 154      1C
 155 06ce 0A1D060E 		.ascii	"\012\035\006\016\035\001\020\027\024\007\035\001\037"
 155      1D011017 
 155      14071D01 
 155      1F
 156 06db 01080100 		.ascii	"\001\010\001\000\022\013\032\003\005\036\011\011\016"
 156      120B1A03 
 156      051E0909 
 156      0E
 157 06e8 090A161E 		.ascii	"\011\012\026\036\004\027\036\003\035\021\001\030\035"
 157      04171E03 
 157      1D110118 
 157      1D
 158 06f5 08190211 		.ascii	"\010\031\002\021\023\025\004\010\013\012\021\026\012"
 158      13150408 
 158      0B0A1116 
 158      0A
 159 0702 1C1C0818 		.ascii	"\034\034\010\030\012\000\012\001\033\035\037\017\026"
 159      0A000A01 
 159      1B1D1F0F 
 159      16
 160 070f 06161316 		.ascii	"\006\026\023\026\012\004\034\000\022\021\023\034\006"
 160      0A041C00 
 160      1211131C 
 160      06
 161 071c 170E1E18 		.ascii	"\027\016\036\030\004\000\023\012\023\020\032\021\016"
 161      0400130A 
 161      13101A11 
 161      0E
 162 0729 180D081D 		.ascii	"\030\015\010\035\037\022\037\022\010\020\027\023\037"
 162      1F121F12 
 162      08101713 
 162      1F
 163 0736 07161E1F 		.ascii	"\007\026\036\037\007\013\026\025\036\014\011\026\036"
 163      070B1615 
 163      1E0C0916 
 163      1E
 164 0743 05110800 		.ascii	"\005\021\010\000\012\020\001\001\024\002\000\001\002"
 164      0A100101 
 164      14020001 
 164      02
 165 0750 1F000F0E 		.ascii	"\037\000\017\016\027\021\036\001\033\037\010\020\015"
 165      17111E01 
 165      1B1F0810 
 165      0D
 166 075d 0B10080A 		.ascii	"\013\020\010\012\010\021\005\035\031\006\006\034\011"
 166      0811051D 
 166      1906061C 
 166      09
 167 076a 0F090205 		.ascii	"\017\011\002\005\012\035\033\036\025\031\004\037\007"
 167      0A1D1B1E 
 167      1519041F 
 167      07
 168 0777 1C171711 		.ascii	"\034\027\027\021\005\024\005\025\001\025\031\004\026"
 168      05140515 
 168      01151904 
 168      16
 169 0784 0D0F0B0E 		.ascii	"\015\017\013\016\026\000\034\007\031\014\004\023\005"
 169      16001C07 
 169      190C0413 
 169      05
 170 0791 0E1D0A1F 		.ascii	"\016\035\012\037\014\007\021\037\020\003\014\032\036"
 170      0C07111F 
 170      10030C1A 
 170      1E
 171 079e 0109100D 		.ascii	"\001\011\020\015\032\030\001\002\006\004\025\036\002"
 171      1A180102 
 171      0604151E 
 171      02
 172 07ab 1417071E 		.ascii	"\024\027\007\036\012\016\020\006\036\026\036\004\017"
 172      0A0E1006 
 172      1E161E04 
 172      0F
 173 07b8 1B03061D 		.ascii	"\033\003\006\035\035\004\012\007\024\023\022\003\026"
 173      1D040A07 
 173      14131203 
 173      16
 174 07c5 0A06091C 		.ascii	"\012\006\011\034\022\026\030\006\022\031\035"
 174      12161806 
 174      12191D
 175 07d0 13080D03 		.ascii	"\023\010\015\003\014\034\032\012\007\001\024\004\014"
 175      0C1C1A0A 
 175      07011404 
 175      0C
 176 07dd 001E0618 		.ascii	"\000\036\006\030\016\013\025\027\036\013\011\011\000"
 176      0E0B1517 
 176      1E0B0909 
 176      00
 177 07ea 19021B0A 		.ascii	"\031\002\033\012\000\004\024\023\021\025\012\023\016"
 177      00041413 
 177      11150A13 
 177      0E
 178 07f7 16130704 		.ascii	"\026\023\007\004\034\021\011\031\011\005\026\011\013"
 178      1C110919 
 178      09051609 
 178      0B
 179 0804 12130C1D 		.ascii	"\022\023\014\035\025\020\025\010\005\020\032\001\002"
 179      15101508 
 179      05101A01 
 179      02
 180 0811 1006190C 		.ascii	"\020\006\031\014\033\032\037\033\031\026\035\017\033"
 180      1B1A1F1B 
 180      19161D0F 
 180      1B
 181 081e 0D0B0908 		.ascii	"\015\013\011\010\002\006\024\020\027\032\007\021\032"
 181      02061410 
 181      171A0711 
 181      1A
 182 082b 1E0D0D03 		.ascii	"\036\015\015\003\025\013\013\025\024\015\032\002\007"
 182      150B0B15 
 182      140D1A02 
 182      07
 183 0838 1B1A1801 		.ascii	"\033\032\030\001\021\031\024\002\035\004\037\033\005"
 183      11191402 
 183      1D041F1B 
 183      05
 184 0845 1A001512 		.ascii	"\032\000\025\022\012\017\023\030\010\025\017\007\006"
 184      0A0F1318 
 184      08150F07 
 184      06
 185 0852 16170103 		.ascii	"\026\027\001\003\013\007\003\012\015\001\010\006\037"
 185      0B07030A 
 185      0D010806 
 185      1F
 186 085f 10070901 		.ascii	"\020\007\011\001\006\033\007\006\012\025\015\002\022"
 186      061B0706 
 186      0A150D02 
 186      12
 187 086c 0F05071E 		.ascii	"\017\005\007\036\024\013\012\037\035\030\001\005\033"
 187      140B0A1F 
 187      1D180105 
 187      1B
 188 0879 0716000D 		.ascii	"\007\026\000\015\003\027\011\000\023\033\015\013\027"
 188      03170900 
 188      131B0D0B 
 188      17
 189 0886 0C1A1018 		.ascii	"\014\032\020\030\001\013\006\037\035\007\033\013\002"
 189      010B061F 
 189      1D071B0B 
 189      02
 190 0893 02080F1C 		.ascii	"\002\010\017\034\002\024\025\002\014\036\011\025\036"
 190      02141502 
 190      0C1E0915 
 190      1E
 191 08a0 1D0D1306 		.ascii	"\035\015\023\006\016\024\012\024\001\014\035\035\016"
 191      0E140A14 
 191      010C1D1D 
 191      0E
 192 08ad 09190E0C 		.ascii	"\011\031\016\014\030\021\013\012\003\001\035\012\006"
 192      18110B0A 
 192      03011D0A 
 192      06
 193 08ba 0D170F03 		.ascii	"\015\027\017\003\024\027\015\036\023\031\000\031\016"
 193      14170D1E 
 193      13190019 
 193      0E
 194 08c7 0F130602 		.ascii	"\017\023\006\002\017\027\003\007\001\015\012\003\011"
 194      0F170307 
 194      010D0A03 
 194      09
 195 08d4 1701171E 		.ascii	"\027\001\027\036\002\022\021\010\033\016\025\022\032"
 195      02121108 
 195      1B0E1512 
 195      1A
 196 08e1 1F171404 		.ascii	"\037\027\024\004\005\034\007\006\016\012\035\032\036"
 196      051C0706 
 196      0E0A1D1A 
 196      1E
 197 08ee 020A1008 		.ascii	"\002\012\020\010\024\030\035\020\023\025\037\035\010"
 197      14181D10 
 197      13151F1D 
 197      08
 198 08fb 1816000C 		.ascii	"\030\026\000\014\033\035\032\036\015\024\011\011\000"
 198      1B1D1A1E 
 198      0D140909 
 198      00
 199 0908 110B141F 		.ascii	"\021\013\024\037\031\016\005\037\015\012\034\016\012"
 199      190E051F 
 199      0D0A1C0E 
 199      0A
 200 0915 1A12131D 		.ascii	"\032\022\023\035\022\032\026\005\010\026\037\014\004"
 200      121A1605 
 200      08161F0C 
 200      04
 201 0922 0D001C08 		.ascii	"\015\000\034\010\001\031\000\021\031\005\001\007\004"
 201      01190011 
 201      19050107 
 201      04
 202 092f 160D1F10 		.ascii	"\026\015\037\020\003\036\037\005\013\010\030\034\026"
 202      031E1F05 
 202      0B08181C 
 202      16
 203 093c 1B1B0C16 		.ascii	"\033\033\014\026\006\026\003\005\031\006\002\015\037"
 203      06160305 
 203      1906020D 
 203      1F
 204 0949 070B0812 		.ascii	"\007\013\010\022\022\031\026\007\006\020\035\005\020"
 204      12191607 
 204      06101D05 
 204      10
 205 0956 011C0F1F 		.ascii	"\001\034\017\037\035\034\027\026\007\030\026\024\033"
 205      1D1C1716 
 205      07181614 
 205      1B
 206 0963 0A00080B 		.ascii	"\012\000\010\013\025\032\010\035\026\023\022\025\011"
 206      151A081D 
 206      16131215 
 206      09
 207 0970 0805021D 		.ascii	"\010\005\002\035\004\001\030\021\011\020\005\012\000"
 207      04011811 
 207      0910050A 
 207      00
 208 097d 1001160B 		.ascii	"\020\001\026\013\025\015\033\030\030\025\033\007\013"
 208      150D1B18 
 208      18151B07 
 208      0B
 209 098a 010A080D 		.ascii	"\001\012\010\015\026\001\034\013\012\007\005\031\005"
 209      16011C0B 
 209      0A070519 
 209      05
 210 0997 0F1F170D 		.ascii	"\017\037\027\015\026\000\020\012\011\014\036\006\032"
 210      1600100A 
 210      090C1E06 
 210      1A
 211 09a4 14151B09 		.ascii	"\024\025\033\011\021\014\001\027\020\006\002\022\030"
 211      110C0117 
 211      10060212 
 211      18
 212 09b1 0F150003 		.ascii	"\017\025\000\003\011\035\002\034\013\021\003\020\003"
 212      091D021C 
 212      0B110310 
 212      03
 213 09be 0F1E1814 		.ascii	"\017\036\030\024\010\031\007\003\002\004\034\016\001"
 213      08190703 
 213      02041C0E 
 213      01
 214 09cb 1701161B 		.ascii	"\027\001\026\033\032\014\007\005\034\036\012\020\030"
 214      1A0C0705 
 214      1C1E0A10 
 214      18
 215 09d8 130D1808 		.ascii	"\023\015\030\010\030\002\005\014\033\023\021\002\037"
 215      1802050C 
 215      1B131102 
 215      1F
 216 09e5 13071802 		.ascii	"\023\007\030\002\004\020\030\033\001\022\005\034\007"
 216      0410181B 
 216      0112051C 
 216      07
 217 09f2 110C0004 		.ascii	"\021\014\000\004\014\022\002\003\034\020\034\031\000"
 217      0C120203 
 217      1C101C19 
 217      00
 218 09ff 180F0414 		.ascii	"\030\017\004\024\021\021\025\017\037\023\010\014\010"
 218      1111150F 
 218      1F13080C 
 218      08
 219 0a0c 16180E11 		.ascii	"\026\030\016\021\030\030\007\025\037\035\003\017\036"
 219      18180715 
 219      1F1D030F 
 219      1E
 220 0a19 1A19170F 		.ascii	"\032\031\027\017\002\000\012\027\031\022\026\032\032"
 220      02000A17 
 220      1912161A 
 220      1A
 221 0a26 06071F0D 		.ascii	"\006\007\037\015\023\021\025\031\014\010\004\012\034"
 221      13111519 
 221      0C08040A 
 221      1C
 222 0a33 181E1B1A 		.ascii	"\030\036\033\032\006\016\010\017\006\001\021\016\037"
 222      060E080F 
 222      0601110E 
 222      1F
 223 0a40 0D191119 		.ascii	"\015\031\021\031\034\011\005\012\006\001\036\035\030"
 223      1C09050A 
 223      06011E1D 
 223      18
 224 0a4d 04121601 		.ascii	"\004\022\026\001\036\020\007\027\005\000\025\012\017"
 224      1E100717 
 224      0500150A 
 224      0F
 225 0a5a 1C0D141F 		.ascii	"\034\015\024\037\032\004\006\016\034\031\023\013\032"
 225      1A04060E 
 225      1C19130B 
 225      1A
 226 0a67 0C001D1D 		.ascii	"\014\000\035\035\020\026\015\026\000\000\017\003\037"
 226      10160D16 
 226      00000F03 
 226      1F
 227 0a74 1C060A12 		.ascii	"\034\006\012\022\031\001\017\016\012\001\003\035\020"
 227      19010F0E 
 227      0A01031D 
 227      10
 228 0a81 0D1B0B14 		.ascii	"\015\033\013\024\030\011\003\002\000\002\017\037\022"
 228      18090302 
 228      00020F1F 
 228      12
 229 0a8e 0A09120E 		.ascii	"\012\011\022\016\022\021\025\015\025\000\004\016\015"
 229      1211150D 
 229      1500040E 
 229      0D
 230 0a9b 050B0B01 		.ascii	"\005\013\013\001\037\002\030\034\021\030\037\006\030"
 230      1F02181C 
 230      11181F06 
 230      18
 231 0aa8 1B1E0407 		.ascii	"\033\036\004\007\005\010\032\034\013\023\023\013\010"
 231      05081A1C 
 231      0B13130B 
 231      08
 232 0ab5 0A1E1415 		.ascii	"\012\036\024\025\014\034\017\021\031\033\022\022\035"
 232      0C1C0F11 
 232      191B1212 
 232      1D
 233 0ac2 06110A1B 		.ascii	"\006\021\012\033\037\013\002\011\004\035\001\031\005"
 233      1F0B0209 
 233      041D0119 
 233      05
 234 0acf 00000C08 		.ascii	"\000\000\014\010\031\023\036\000\007\036\014\003\013"
 234      19131E00 
 234      071E0C03 
 234      0B
 235 0adc 0F051C04 		.ascii	"\017\005\034\004\022\020\007\036\027\005\021\037\017"
 235      1210071E 
 235      1705111F 
 235      0F
 236 0ae9 0C1E0D0B 		.ascii	"\014\036\015\013\010\036\021\023\015\037\034\025\024"
 236      081E1113 
 236      0D1F1C15 
 236      14
 237 0af6 1D031915 		.ascii	"\035\003\031\025\020\014\032\011\023\000\024\036\001"
 237      100C1A09 
 237      1300141E 
 237      01
 238 0b03 06190514 		.ascii	"\006\031\005\024\010\005\024\032\027\027\036\003\010"
 238      0805141A 
 238      17171E03 
 238      08
 239 0b10 1B1F1107 		.ascii	"\033\037\021\007\030\001\027\021\003\016\014\016\000"
 239      18011711 
 239      030E0C0E 
 239      00
 240 0b1d 1B041302 		.ascii	"\033\004\023\002\037\015\003\035\021\004\023\016\027"
 240      1F0D031D 
 240      1104130E 
 240      17
 241 0b2a 0A02140B 		.ascii	"\012\002\024\013\021\020\021\026\020\000\023\016\035"
 241      11101116 
 241      1000130E 
 241      1D
 242 0b37 0E180309 		.ascii	"\016\030\003\011\014\003\015\017\011\014\013\005\022"
 242      0C030D0F 
 242      090C0B05 
 242      12
 243 0b44 07060705 		.ascii	"\007\006\007\005\021\032\020\007\011\006\036\011\010"
 243      111A1007 
 243      09061E09 
 243      08
 244 0b51 1E0B1E1E 		.ascii	"\036\013\036\036\001\021\036\014\011\023\025\021\000"
 244      01111E0C 
 244      09131511 
 244      00
 245 0b5e 04140C0D 		.ascii	"\004\024\014\015\032\000\024\006\005\036\025\036\015"
 245      1A001406 
 245      051E151E 
 245      0D
 246 0b6b 1A1A0818 		.ascii	"\032\032\010\030\020\031\033\033\036\025\021\030\021"
 246      10191B1B 
 246      1E151118 
 246      11
 247 0b78 0011011B 		.ascii	"\000\021\001\033\007\013\026\020\007\004\034\005\002"
 247      070B1610 
 247      07041C05 
 247      02
 248 0b85 01010A04 		.ascii	"\001\001\012\004\020\013\026\022\003\014\017\025\013"
 248      100B1612 
 248      030C0F15 
 248      0B
 249 0b92 030E1208 		.ascii	"\003\016\022\010\016\003\025\000\000\015\022\005\005"
 249      0E031500 
 249      000D1205 
 249      05
 250 0b9f 0D051B12 		.ascii	"\015\005\033\022\007\026\013\035\031\031\006\033\000"
 250      07160B1D 
 250      1919061B 
 250      00
 251 0bac 1615191E 		.ascii	"\026\025\031\036\032\000\005\022\002\005\017\013\012"
 251      1A000512 
 251      02050F0B 
 251      0A
 252 0bb9 17181604 		.ascii	"\027\030\026\004\014\020\031\027\026\013\034\021\005"
 252      0C101917 
 252      160B1C11 
 252      05
 253 0bc6 021E1B00 		.ascii	"\002\036\033\000\020\024\017\010\032\027\003\031\004"
 253      10140F08 
 253      1A170319 
 253      04
 254 0bd3 0E030407 		.ascii	"\016\003\004\007\027\011\030\007\034\003\035\002\005"
 254      17091807 
 254      1C031D02 
 254      05
 255 0be0 161D1517 		.ascii	"\026\035\025\027\035\035\025\006\036\001\022\003\020"
 255      1D1D1506 
 255      1E011203 
 255      10
 256 0bed 141A181B 		.ascii	"\024\032\030\033\005\010\021\013\016\014\005\006\000"
 256      0508110B 
 256      0E0C0506 
 256      00
 257 0bfa 1E0D0D1E 		.ascii	"\036\015\015\036\014\034\000\036\017\006\016\016\013"
 257      0C1C001E 
 257      0F060E0E 
 257      0B
 258 0c07 1F0D0406 		.ascii	"\037\015\004\006\037\026\005\033\024\001\000\010\031"
 258      1F16051B 
 258      14010008 
 258      19
 259 0c14 0D071C07 		.ascii	"\015\007\034\007\007\037\017\022\013\027\024\004\034"
 259      071F0F12 
 259      0B171404 
 259      1C
 260 0c21 13150618 		.ascii	"\023\025\006\030\004\022\030\022\017\012\032\031\032"
 260      04121812 
 260      0F0A1A19 
 260      1A
 261 0c2e 1F040A07 		.ascii	"\037\004\012\007\003\002\005\020\036\021\000\002\035"
 261      03020510 
 261      1E110002 
 261      1D
 262 0c3b 09141616 		.ascii	"\011\024\026\026\033\001\023\001\013\024\020\031\012"
 262      1B011301 
 262      0B141019 
 262      0A
 263 0c48 181E0D02 		.ascii	"\030\036\015\002\024\006\030\016\024\035\011\022\007"
 263      1406180E 
 263      141D0912 
 263      07
 264 0c55 01081608 		.ascii	"\001\010\026\010\007\015\014\027\004\006\023\022\007"
 264      070D0C17 
 264      04061312 
 264      07
 265 0c62 0F1A1806 		.ascii	"\017\032\030\006\004\004\010\023\031\026\024\036\007"
 265      04040813 
 265      1916141E 
 265      07
 266 0c6f 040F140D 		.ascii	"\004\017\024\015\013\016\031\025\023\016\012\033\010"
 266      0B0E1915 
 266      130E0A1B 
 266      08
 267 0c7c 06130B1D 		.ascii	"\006\023\013\035\015\035\004\002\016\023\024\030\004"
 267      0D1D0402 
 267      0E131418 
 267      04
 268 0c89 1D0C1616 		.ascii	"\035\014\026\026\027\030\005\031\014\013\011\011\004"
 268      17180519 
 268      0C0B0909 
 268      04
 269 0c96 0A1C1117 		.ascii	"\012\034\021\027\016\000\006\035\005\023\000\001\021"
 269      0E00061D 
 269      05130001 
 269      11
 270 0ca3 11091E02 		.ascii	"\021\011\036\002\011\003\011\022\022\022\010\015\006"
 270      09030912 
 270      1212080D 
 270      06
 271 0cb0 151D1700 		.ascii	"\025\035\027\000\035\021\004\035\036\027\021\016\004"
 271      1D11041D 
 271      1E17110E 
 271      04
 272 0cbd 1B08061C 		.ascii	"\033\010\006\034\001\000\007\026\000\027\022\034\031"
 272      01000716 
 272      0017121C 
 272      19
 273 0cca 0B0E131A 		.ascii	"\013\016\023\032\007\005\005\013\007\013\026\037\010"
 273      0705050B 
 273      070B161F 
 273      08
 274 0cd7 060F1905 		.ascii	"\006\017\031\005\002\034\037\020\034\031\017\004\026"
 274      021C1F10 
 274      1C190F04 
 274      16
 275 0ce4 131F081A 		.ascii	"\023\037\010\032\003\033\015\011\016\002\021\034\014"
 275      031B0D09 
 275      0E02111C 
 275      0C
 276 0cf1 15071112 		.ascii	"\025\007\021\022\025\025\027\000\037\003\020\022\030"
 276      15151700 
 276      1F031012 
 276      18
 277 0cfe 15021A0C 		.ascii	"\025\002\032\014\030\026\023\020\007\007\021\033\013"
 277      18161310 
 277      0707111B 
 277      0B
 278 0d0b 08090B1B 		.ascii	"\010\011\013\033\014\000\015\033\031\003\033\014\001"
 278      0C000D1B 
 278      19031B0C 
 278      01
 279 0d18 1A1C1D12 		.ascii	"\032\034\035\022\020\020\036\017\037\023\024\004\000"
 279      10101E0F 
 279      1F131404 
 279      00
 280 0d25 0E091B1A 		.ascii	"\016\011\033\032\037\014\014\027\016\017\007\026\000"
 280      1F0C0C17 
 280      0E0F0716 
 280      00
 281 0d32 11041803 		.ascii	"\021\004\030\003\010\021\033\021\000\005\036\025\014"
 281      08111B11 
 281      00051E15 
 281      0C
 282 0d3f 0F111707 		.ascii	"\017\021\027\007\036\014\005\011\012\027\016\022\006"
 282      1E0C0509 
 282      0A170E12 
 282      06
 283 0d4c 11020D13 		.ascii	"\021\002\015\023\037\017\002\000\007\023\004\021\022"
 283      1F0F0200 
 283      07130411 
 283      12
 284 0d59 0F111D0F 		.ascii	"\017\021\035\017\026\022\012\020\020\002\037\013\027"
 284      16120A10 
 284      10021F0B 
 284      17
 285 0d66 181F1D13 		.ascii	"\030\037\035\023\000\024\022\034\005\031\013\007\006"
 285      0014121C 
 285      05190B07 
 285      06
 286 0d73 150F1610 		.ascii	"\025\017\026\020\037\005\031\015\002\023\026\016\002"
 286      1F05190D 
 286      0213160E 
 286      02
 287 0d80 11040411 		.ascii	"\021\004\004\021\020\000\011\016\003\036\004\013\026"
 287      1000090E 
 287      031E040B 
 287      16
 288 0d8d 1B18151A 		.ascii	"\033\030\025\032\035\003\006\015\016\026\001\003\016"
 288      1D03060D 
 288      0E160103 
 288      0E
 289 0d9a 1306140F 		.ascii	"\023\006\024\017\002\037\004\035\036\006\012\033\030"
 289      021F041D 
 289      1E060A1B 
 289      18
 290 0da7 180F110E 		.ascii	"\030\017\021\016\025\035\020\035\027\014\015\024\014"
 290      151D101D 
 290      170C0D14 
 290      0C
 291 0db4 071B1012 		.ascii	"\007\033\020\022\025\030\026\000\030\012\013\006\006"
 291      15181600 
 291      180A0B06 
 291      06
 292 0dc1 1019120D 		.ascii	"\020\031\022\015\036\035\013\001\012\033\000\000\034"
 292      1E1D0B01 
 292      0A1B0000 
 292      1C
 293 0dce 1E0C1303 		.ascii	"\036\014\023\003\012\000\032\016\011\014\020\017\035"
 293      0A001A0E 
 293      090C100F 
 293      1D
 294 0ddb 0601060F 		.ascii	"\006\001\006\017\014\000\031\036\005\026\023\036\017"
 294      0C00191E 
 294      0516131E 
 294      0F
 295 0de8 08090113 		.ascii	"\010\011\001\023\032\020\037\030\000\024\003\034\024"
 295      1A101F18 
 295      0014031C 
 295      14
 296 0df5 0817000A 		.ascii	"\010\027\000\012\007\020\012\014\024\006\007\017\002"
 296      07100A0C 
 296      1406070F 
 296      02
 297 0e02 1316121D 		.ascii	"\023\026\022\035\025\027\016\001\010\032\025\030\015"
 297      15170E01 
 297      081A1518 
 297      0D
 298 0e0f 1F18181D 		.ascii	"\037\030\030\035\037\010\036\035\026\035\035\001\023"
 298      1F081E1D 
 298      161D1D01 
 298      13
 299 0e1c 09110202 		.ascii	"\011\021\002\002\012\012\010\027\033\003\025\032\006"
 299      0A0A0817 
 299      1B03151A 
 299      06
 300 0e29 0E190E1F 		.ascii	"\016\031\016\037\017\001\033\027\022\026\005\001\026"
 300      0F011B17 
 300      12160501 
 300      16
 301 0e36 030F1714 		.ascii	"\003\017\027\024\026\001\015\037\017\006\025\034\016"
 301      16010D1F 
 301      0F06151C 
 301      0E
 302 0e43 14001513 		.ascii	"\024\000\025\023\002\013\030\023\014\020\016\026\037"
 302      020B1813 
 302      0C100E16 
 302      1F
 303 0e50 04001C19 		.ascii	"\004\000\034\031\032\016\004\010\020\002\023\015\020"
 303      1A0E0408 
 303      1002130D 
 303      10
 304 0e5d 0C000600 		.ascii	"\014\000\006\000\027\032\031\004\005\017\031\025\011"
 304      171A1904 
 304      050F1915 
 304      09
 305 0e6a 1908150B 		.ascii	"\031\010\025\013\023\013\006\031\035\034\025\026\015"
 305      130B0619 
 305      1D1C1516 
 305      0D
 306 0e77 0E171019 		.ascii	"\016\027\020\031\015\007\016\001\023\006\023\023\037"
 306      0D070E01 
 306      13061313 
 306      1F
 307 0e84 1619181E 		.ascii	"\026\031\030\036\027\030\021\025\016\013\013\020\006"
 307      17181115 
 307      0E0B0B10 
 307      06
 308 0e91 0F0B1115 		.ascii	"\017\013\021\025\022\035\033\010\017\036\033\021\001"
 308      121D1B08 
 308      0F1E1B11 
 308      01
 309 0e9e 19000A1A 		.ascii	"\031\000\012\032\001\022\014\036\030\022\005\035\030"
 309      01120C1E 
 309      1812051D 
 309      18
 310 0eab 0F090406 		.ascii	"\017\011\004\006\010\010\034\025\021\022\016\031\000"
 310      08081C15 
 310      11120E19 
 310      00
 311 0eb8 19090F12 		.ascii	"\031\011\017\022\012\032\006\030\004\036\017\015\037"
 311      0A1A0618 
 311      041E0F0D 
 311      1F
 312 0ec5 17110601 		.ascii	"\027\021\006\001\021\024\000\035\033\000\015\023\014"
 312      1114001D 
 312      1B000D13 
 312      0C
 313 0ed2 10150500 		.ascii	"\020\025\005\000\025\011\010\032\005\007\024\014\002"
 313      1509081A 
 313      0507140C 
 313      02
 314 0edf 0C1C171F 		.ascii	"\014\034\027\037\000\014\024\032\026\023\034\013\022"
 314      000C141A 
 314      16131C0B 
 314      12
 315 0eec 130B1810 		.ascii	"\023\013\030\020\021\005\006\023\012\001\032\023\017"
 315      11050613 
 315      0A011A13 
 315      0F
 316 0ef9 08171914 		.ascii	"\010\027\031\024\033\025\011\020\021\014\020\022\034"
 316      1B150910 
 316      110C1012 
 316      1C
 317 0f06 1B151012 		.ascii	"\033\025\020\022\027\011\037\030\000\021\036\032\035"
 317      17091F18 
 317      00111E1A 
 317      1D
 318 0f13 140F0F14 		.ascii	"\024\017\017\024\023\002\013\003\030\026\015\013\021"
 318      13020B03 
 318      18160D0B 
 318      11
 319 0f20 18080B13 		.ascii	"\030\010\013\023\007\000\023\000\003\026\007\032\005"
 319      07001300 
 319      0316071A 
 319      05
 320 0f2d 0D001009 		.ascii	"\015\000\020\011\000\016\025\011\037\006\027\030\033"
 320      000E1509 
 320      1F061718 
 320      1B
 321 0f3a 1F14120D 		.ascii	"\037\024\022\015\026\035\011\024\000\004\000\025\011"
 321      161D0914 
 321      00040015 
 321      09
 322 0f47 0C071813 		.ascii	"\014\007\030\023\035\016\004\036\025\022\032\024\031"
 322      1D0E041E 
 322      15121A14 
 322      19
 323 0f54 08081C01 		.ascii	"\010\010\034\001\006\021\022\001\017\023\034\027\033"
 323      06111201 
 323      0F131C17 
 323      1B
 324 0f61 1D14101E 		.ascii	"\035\024\020\036\021\020\012\015\022\013\001\011\030"
 324      11100A0D 
 324      120B0109 
 324      18
 325 0f6e 06181603 		.ascii	"\006\030\026\003\023\025\023\033\022\012\025\004\033"
 325      1315131B 
 325      120A1504 
 325      1B
 326 0f7b 1F161A09 		.ascii	"\037\026\032\011\036\035\021\003\000\000\026\032\003"
 326      1E1D1103 
 326      0000161A 
 326      03
 327 0f88 001C1405 		.ascii	"\000\034\024\005\023\017\012\025\002\017\021\035\003"
 327      130F0A15 
 327      020F111D 
 327      03
 328 0f95 1A171011 		.ascii	"\032\027\020\021\010\027\032\027\021\013\025"
 328      08171A17 
 328      110B15
 329 0fa0 100A0203 		.ascii	"\020\012\002\003\002\015\004\003\023\004\010\015\020"
 329      020D0403 
 329      1304080D 
 329      10
 330 0fad 05081F0B 		.ascii	"\005\010\037\013\030\023\005\024\012\030\016\006\003"
 330      18130514 
 330      0A180E06 
 330      03
 331 0fba 19050C0D 		.ascii	"\031\005\014\015\036\031\037\011\014\004\010\000\024"
 331      1E191F09 
 331      0C040800 
 331      14
 332 0fc7 0F081A17 		.ascii	"\017\010\032\027\002\002\007\027\015\030\011\025\023"
 332      02020717 
 332      0D180915 
 332      13
 333 0fd4 020C0B18 		.ascii	"\002\014\013\030\031\003\004\003\017\033\006\025\013"
 333      19030403 
 333      0F1B0615 
 333      0B
 334 0fe1 0B04171F 		.ascii	"\013\004\027\037\036\005\026\035\033\010\021\032\025"
 334      1E05161D 
 334      1B08111A 
 334      15
 335 0fee 07031C01 		.ascii	"\007\003\034\001\012\005\024\023\010\002\012\001\020"
 335      0A051413 
 335      08020A01 
 335      10
 336 0ffb 0A011211 		.ascii	"\012\001\022\021\010\036\021\023\027\012\035\005\023"
 336      081E1113 
 336      170A1D05 
 336      13
 337 1008 1C0C0C15 		.ascii	"\034\014\014\025\012\014\015\030\035\026\026\007\000"
 337      0A0C0D18 
 337      1D161607 
 337      00
 338 1015 160C171F 		.ascii	"\026\014\027\037\022\005\031\005\030\010\022\022\011"
 338      12051905 
 338      18081212 
 338      09
 339 1022 140F1F19 		.ascii	"\024\017\037\031\003\024\004\030\030\002\021\006\015"
 339      03140418 
 339      18021106 
 339      0D
 340 102f 0B1F1303 		.ascii	"\013\037\023\003\002\026\013\030\022\020\021\015\003"
 340      02160B18 
 340      1210110D 
 340      03
 341 103c 060C1814 		.ascii	"\006\014\030\024\013\027\016\024\016\007\001\006\013"
 341      0B170E14 
 341      0E070106 
 341      0B
 342 1049 16051601 		.ascii	"\026\005\026\001\014\023\030\010\022\002\036\016\020"
 342      0C131808 
 342      12021E0E 
 342      10
 343 1056 101F1516 		.ascii	"\020\037\025\026\000\000\032\002\027\023\030\022\014"
 343      00001A02 
 343      17131812 
 343      0C
 344 1063 071D080C 		.ascii	"\007\035\010\014\036\013\002\007\037\012\003\034\004"
 344      1E0B0207 
 344      1F0A031C 
 344      04
 345 1070 051C1C05 		.ascii	"\005\034\034\005\036\032\035\030\010\022\037\027\015"
 345      1E1A1D18 
 345      08121F17 
 345      0D
 346 107d 1B08031D 		.ascii	"\033\010\003\035\037\013\031\024\024\010\037\006\027"
 346      1F0B1914 
 346      14081F06 
 346      17
 347 108a 1112151A 		.ascii	"\021\022\025\032\004\033\027\023\013\035\000\030\015"
 347      041B1713 
 347      0B1D0018 
 347      0D
 348 1097 170F100D 		.ascii	"\027\017\020\015\022\034\004\005\021\001\036\013\016"
 348      121C0405 
 348      11011E0B 
 348      0E
 349 10a4 0A0F131C 		.ascii	"\012\017\023\034\023\025\027\031\027\002\020\033\013"
 349      13151719 
 349      1702101B 
 349      0B
 350 10b1 091A0705 		.ascii	"\011\032\007\005\023\023\006\023\026\037\030\030\020"
 350      13130613 
 350      161F1818 
 350      10
 351 10be 0F121E02 		.ascii	"\017\022\036\002\011\000\005\034\012\007\016\035\020"
 351      0900051C 
 351      0A070E1D 
 351      10
 352 10cb 0D130B19 		.ascii	"\015\023\013\031\026\022\037\030\031\026\017\030\013"
 352      16121F18 
 352      19160F18 
 352      0B
 353 10d8 1002180E 		.ascii	"\020\002\030\016\013\023\016\032\002\020\022\005\015"
 353      0B130E1A 
 353      02101205 
 353      0D
 354 10e5 120D0B05 		.ascii	"\022\015\013\005\033\013\026\000\015\014\017\030\001"
 354      1B0B1600 
 354      0D0C0F18 
 354      01
 355 10f2 1D0C0706 		.ascii	"\035\014\007\006\027\014\005\015\013\031\015\003\002"
 355      170C050D 
 355      0B190D03 
 355      02
 356 10ff 141C160A 		.ascii	"\024\034\026\012\034\025\001\006\022\006\000\012\017"
 356      1C150106 
 356      1206000A 
 356      0F
 357 110c 0210091C 		.ascii	"\002\020\011\034\002\027\031\015\012\002\015\031\015"
 357      0217190D 
 357      0A020D19 
 357      0D
 358 1119 15080704 		.ascii	"\025\010\007\004\012\015\020\021\016\020\001\022\003"
 358      0A0D1011 
 358      0E100112 
 358      03
 359 1126 1E0A1213 		.ascii	"\036\012\022\023\016\031\000\013\010\031\033\024\035"
 359      0E19000B 
 359      08191B14 
 359      1D
 360 1133 0D021C03 		.ascii	"\015\002\034\003\032\014\020\014\016\000\025\024\003"
 360      1A0C100C 
 360      0E001514 
 360      03
 361 1140 001F1617 		.ascii	"\000\037\026\027\037\034\023\015\012\007\006\006\034"
 361      1F1C130D 
 361      0A070606 
 361      1C
 362 114d 1F1D071D 		.ascii	"\037\035\007\035\022\015\000\011\035\034\013\037\030"
 362      120D0009 
 362      1D1C0B1F 
 362      18
 363 115a 190E1C1F 		.ascii	"\031\016\034\037\017\011\010\026\006\011\025\035\025"
 363      0F090816 
 363      0609151D 
 363      15
 364 1167 1F140003 		.ascii	"\037\024\000\003\031\031\031\031\010\034\011\032\016"
 364      19191919 
 364      081C091A 
 364      0E
 365 1174 100C0012 		.ascii	"\020\014\000\022\024\033\035\020\002\036\036\006\031"
 365      141B1D10 
 365      021E1E06 
 365      19
 366 1181 0A150807 		.ascii	"\012\025\010\007\013\023\011\014\001\030\037\037\034"
 366      0B13090C 
 366      01181F1F 
 366      1C
 367 118e 1416070E 		.ascii	"\024\026\007\016\012\017\007\016\013\024\024\024\012"
 367      0A0F070E 
 367      0B141414 
 367      0A
 368 119b 09081E1D 		.ascii	"\011\010\036\035\015\011\010\032\033\037\034\016\000"
 368      0D09081A 
 368      1B1F1C0E 
 368      00
 369 11a8 1C0A060F 		.ascii	"\034\012\006\017\030\010\015\026\036\033\000\035\000"
 369      18080D16 
 369      1E1B001D 
 369      00
 370 11b5 0712180A 		.ascii	"\007\022\030\012\035\001\037\016\036\036\014\031\025"
 370      1D011F0E 
 370      1E1E0C19 
 370      15
 371 11c2 121B0112 		.ascii	"\022\033\001\022\007\031\025\033\003\035\017\023\005"
 371      0719151B 
 371      031D0F13 
 371      05
 372 11cf 10021A0A 		.ascii	"\020\002\032\012\010\037\000\023\031\033\003\007\001"
 372      081F0013 
 372      191B0307 
 372      01
 373 11dc 050D1D03 		.ascii	"\005\015\035\003\023\030\033\012\021\003\021\033\017"
 373      13181B0A 
 373      1103111B 
 373      0F
 374 11e9 071F101C 		.ascii	"\007\037\020\034\012\001\020\037\027\031\025\012\014"
 374      0A01101F 
 374      1719150A 
 374      0C
 375 11f6 11041716 		.ascii	"\021\004\027\026\001\007\004\012\001\016\020\031\024"
 375      0107040A 
 375      010E1019 
 375      14
 376 1203 1A0A1A1E 		.ascii	"\032\012\032\036\001\005\000\030\022\013\014\024\003"
 376      01050018 
 376      120B0C14 
 376      03
 377 1210 14020203 		.ascii	"\024\002\002\003\006\006\001\007\020\001\017\014\024"
 377      06060107 
 377      10010F0C 
 377      14
 378 121d 111D1D1B 		.ascii	"\021\035\035\033\004\027\016\020\014\030\021\011\035"
 378      04170E10 
 378      0C181109 
 378      1D
 379 122a 15120816 		.ascii	"\025\022\010\026\035\007\001\027\021\012\010\021\017"
 379      1D070117 
 379      110A0811 
 379      0F
 380 1237 080E040E 		.ascii	"\010\016\004\016\016\015\021\032\024\012\032\012\024"
 380      0E0D111A 
 380      140A1A0A 
 380      14
 381 1244 0C1C1406 		.ascii	"\014\034\024\006\037\014\017\003\015\000\036\035\004"
 381      1F0C0F03 
 381      0D001E1D 
 381      04
 382 1251 1F0D1E18 		.ascii	"\037\015\036\030\013\013\026\007\033\036\017\004\017"
 382      0B0B1607 
 382      1B1E0F04 
 382      0F
 383 125e 091D0503 		.ascii	"\011\035\005\003\034\013\004\032\012\031\036\036\023"
 383      1C0B041A 
 383      0A191E1E 
 383      13
 384 126b 010E0511 		.ascii	"\001\016\005\021\030\002\034\027\020\037\037\025\035"
 384      18021C17 
 384      101F1F15 
 384      1D
 385 1278 0F0F1010 		.ascii	"\017\017\020\020\014\033\010\017\003\006\033\022\004"
 385      0C1B080F 
 385      03061B12 
 385      04
 386 1285 0F011903 		.ascii	"\017\001\031\003\026\017\020\024\025\031\016\005\021"
 386      160F1014 
 386      15190E05 
 386      11
 387 1292 06161703 		.ascii	"\006\026\027\003\035\024\006\026\033\002\010\033\020"
 387      1D140616 
 387      1B02081B 
 387      10
 388 129f 04120A13 		.ascii	"\004\022\012\023\030\021\016\007\021\000\035\025\002"
 388      18110E07 
 388      11001D15 
 388      02
 389 12ac 0605031F 		.ascii	"\006\005\003\037\034\034\021\001\031\010\003\015\023"
 389      1C1C1101 
 389      1908030D 
 389      13
 390 12b9 101A160B 		.ascii	"\020\032\026\013\034\005\002\001\020\031\002\005\013"
 390      1C050201 
 390      10190205 
 390      0B
 391 12c6 1D0B1D04 		.ascii	"\035\013\035\004\004\036\033\001\032\005\007\014\020"
 391      041E1B01 
 391      1A05070C 
 391      10
 392 12d3 13081C03 		.ascii	"\023\010\034\003\004\020\022\017\023\010\030\007\033"
 392      0410120F 
 392      13081807 
 392      1B
 393 12e0 14090111 		.ascii	"\024\011\001\021\014\017\027\003\024\032\034\034\000"
 393      0C0F1703 
 393      141A1C1C 
 393      00
 394 12ed 1B17081F 		.ascii	"\033\027\010\037\007\017\034\022\012\026\004\011\024"
 394      070F1C12 
 394      0A160409 
 394      14
 395 12fa 121B1F1F 		.ascii	"\022\033\037\037\024\015\017\020\026\036\005\014\034"
 395      140D0F10 
 395      161E050C 
 395      1C
 396 1307 0B1E0E13 		.ascii	"\013\036\016\023\022\031\035\013\015\001\025\030\005"
 396      12191D0B 
 396      0D011518 
 396      05
 397 1314 090D0E16 		.ascii	"\011\015\016\026\020\020\013\015\020\023\036\002\004"
 397      10100B0D 
 397      10131E02 
 397      04
 398 1321 1F0F1A02 		.ascii	"\037\017\032\002\001\024\013\001\014\000\014\015\033"
 398      01140B01 
 398      0C000C0D 
 398      1B
 399 132e 0F1B0A11 		.ascii	"\017\033\012\021\026\032\007\026\000\014\024\033\007"
 399      161A0716 
 399      000C141B 
 399      07
 400 133b 1C03020C 		.ascii	"\034\003\002\014\004\034\003\032\030\034\036\017\017"
 400      041C031A 
 400      181C1E0F 
 400      0F
 401 1348 15191003 		.ascii	"\025\031\020\003\024\017\030\036\011\002\025\001\024"
 401      140F181E 
 401      09021501 
 401      14
 402 1355 040D1513 		.ascii	"\004\015\025\023\023\007\037\023\015\003\036\002\017"
 402      13071F13 
 402      0D031E02 
 402      0F
 403 1362 15180C11 		.ascii	"\025\030\014\021\011\020\004\016\006\035\031\025\004"
 403      0910040E 
 403      061D1915 
 403      04
 404 136f 1E160C07 		.ascii	"\036\026\014\007\020\031\034\026\037\017\002\007\012"
 404      10191C16 
 404      1F0F0207 
 404      0A
 405 137c 0C0E0701 		.ascii	"\014\016\007\001\003\025\010\020\031\016\014\002\027"
 405      03150810 
 405      190E0C02 
 405      17
 406 1389 120F0710 		.ascii	"\022\017\007\020\012\017\002\001\000\003\010\020\007"
 406      0A0F0201 
 406      00030810 
 406      07
 407 1396 16140819 		.ascii	"\026\024\010\031\031\015\024\015\003\016\015\001\005"
 407      190D140D 
 407      030E0D01 
 407      05
 408 13a3 1C050708 		.ascii	"\034\005\007\010\022\014\003\025\036\002\036\033\023"
 408      120C0315 
 408      1E021E1B 
 408      13
 409 13b0 0F171A0C 		.ascii	"\017\027\032\014\015\037\007\023\000\007\003\012\012"
 409      0D1F0713 
 409      0007030A 
 409      0A
 410 13bd 0C121D0D 		.ascii	"\014\022\035\015\027\010\001\025\035\027\002\035\022"
 410      17080115 
 410      1D17021D 
 410      12
 411 13ca 12071A0E 		.ascii	"\022\007\032\016\013\000\002\000\025\036\006\031\020"
 411      0B000200 
 411      151E0619 
 411      10
 412 13d7 18041001 		.ascii	"\030\004\020\001\017\032\032\017\022\014\002\003\013"
 412      0F1A1A0F 
 412      120C0203 
 412      0B
 413 13e4 09181F04 		.ascii	"\011\030\037\004\030\026\013\032\015\020\022\010\032"
 413      18160B1A 
 413      0D101208 
 413      1A
 414 13f1 17070A1A 		.ascii	"\027\007\012\032\033\030\000\003\007\011\000\025\034"
 414      1B180003 
 414      07090015 
 414      1C
 415 13fe 11030B0C 		.ascii	"\021\003\013\014\036\006\026\004\005\004\017\026\001"
 415      1E061604 
 415      05040F16 
 415      01
 416 140b 0C011014 		.ascii	"\014\001\020\024\013\016\037\005\027\005\013\020\015"
 416      0B0E1F05 
 416      17050B10 
 416      0D
 417 1418 0B081D16 		.ascii	"\013\010\035\026\001\020\030\037\015\010\033\033\023"
 417      0110181F 
 417      0D081B1B 
 417      13
 418 1425 02001710 		.ascii	"\002\000\027\020\004\010\007\027\013\012\013\020\021"
 418      04080717 
 418      0B0A0B10 
 418      11
 419 1432 061D010E 		.ascii	"\006\035\001\016\026\036\012\002\010\034\015\020\031"
 419      161E0A02 
 419      081C0D10 
 419      19
 420 143f 19040705 		.ascii	"\031\004\007\005\017\033\030\032\032\037\003\016\032"
 420      0F1B181A 
 420      1A1F030E 
 420      1A
 421 144c 16070F1F 		.ascii	"\026\007\017\037\033\017\002\023\025\021\000\001\026"
 421      1B0F0213 
 421      15110001 
 421      16
 422 1459 160D0F04 		.ascii	"\026\015\017\004\015\003\017\034\004\001\030\013\025"
 422      0D030F1C 
 422      0401180B 
 422      15
 423 1466 01021F14 		.ascii	"\001\002\037\024\023\012\024\025\037\023\021\010\004"
 423      130A1415 
 423      1F131108 
 423      04
 424 1473 1618040B 		.ascii	"\026\030\004\013\017\022\033\032\023\032\036\012\033"
 424      0F121B1A 
 424      131A1E0A 
 424      1B
 425 1480 0E12001D 		.ascii	"\016\022\000\035\010\035\030\021\034\007\026\013\032"
 425      081D1811 
 425      1C07160B 
 425      1A
 426 148d 08150A0F 		.ascii	"\010\025\012\017\016\024\035\000\023\035\026\005\036"
 426      0E141D00 
 426      131D1605 
 426      1E
 427 149a 0B0D1A02 		.ascii	"\013\015\032\002\026\037\015\002\002\021\013\026\020"
 427      161F0D02 
 427      02110B16 
 427      10
 428 14a7 1E190F01 		.ascii	"\036\031\017\001\027\020\033\021\016\025\013\024\002"
 428      17101B11 
 428      0E150B14 
 428      02
 429 14b4 03150010 		.ascii	"\003\025\000\020\020\013\026\032\017\037\017\022\011"
 429      100B161A 
 429      0F1F0F12 
 429      09
 430 14c1 1F1B0D0E 		.ascii	"\037\033\015\016\037\016\024\036\030\020\015\036\016"
 430      1F0E141E 
 430      18100D1E 
 430      0E
 431 14ce 0C1E0B1A 		.ascii	"\014\036\013\032\026\026\020\017\020\037\017\015\023"
 431      1616100F 
 431      101F0F0D 
 431      13
 432 14db 1E051116 		.ascii	"\036\005\021\026\034\027\037\003\013\035\037\016\026"
 432      1C171F03 
 432      0B1D1F0E 
 432      16
 433 14e8 010F0701 		.ascii	"\001\017\007\001\021\031\025\006\026\024\007\011\003"
 433      11191506 
 433      16140709 
 433      03
 434 14f5 0904021C 		.ascii	"\011\004\002\034\036\010\033\033\017\022\011\007\026"
 434      1E081B1B 
 434      0F120907 
 434      16
 435 1502 141A0C10 		.ascii	"\024\032\014\020\022\034\026\003\034\004\003\017\026"
 435      121C1603 
 435      1C04030F 
 435      16
 436 150f 1F1D0C1D 		.ascii	"\037\035\014\035\014\011\023\005\006\012\034\003\020"
 436      0C091305 
 436      060A1C03 
 436      10
 437 151c 00010C11 		.ascii	"\000\001\014\021\020\032\017\021\036\024\030\034\017"
 437      101A0F11 
 437      1E14181C 
 437      0F
 438 1529 16091300 		.ascii	"\026\011\023\000\022\037\011\021\011\022\027\004\001"
 438      121F0911 
 438      09121704 
 438      01
 439 1536 1216100C 		.ascii	"\022\026\020\014\007\020\005\005\037\035\036\017\015"
 439      07100505 
 439      1F1D1E0F 
 439      0D
 440 1543 021E0F14 		.ascii	"\002\036\017\024\036\004\000\011\001\027\014\000\017"
 440      1E040009 
 440      01170C00 
 440      0F
 441 1550 031D0E13 		.ascii	"\003\035\016\023\020\034\007\027\032\035\024\005\013"
 441      101C0717 
 441      1A1D1405 
 441      0B
 442 155d 1A1E1012 		.ascii	"\032\036\020\022\036\002\032\006\006\032\001\020\021"
 442      1E021A06 
 442      061A0110 
 442      11
 443 156a 19101701 		.ascii	"\031\020\027\001\000\006\007\037\000\013\026\002\031"
 443      0006071F 
 443      000B1602 
 443      19
 444 1577 0E1B0E0D 		.ascii	"\016\033\016\015\027\032\014\022\023\010\031\007\013"
 444      171A0C12 
 444      13081907 
 444      0B
 445 1584 081E041B 		.ascii	"\010\036\004\033\014\033\011\034\021\016\031\032\023"
 445      0C1B091C 
 445      110E191A 
 445      13
 446 1591 0701071A 		.ascii	"\007\001\007\032\001\012\021\007\017\035\015\001\006"
 446      010A1107 
 446      0F1D0D01 
 446      06
 447 159e 1E1B1C12 		.ascii	"\036\033\034\022\014\013\034\021\004\035\023\013\011"
 447      0C0B1C11 
 447      041D130B 
 447      09
 448 15ab 010F0E04 		.ascii	"\001\017\016\004\035\006\035\013\012\027\007\026\027"
 448      1D061D0B 
 448      0A170716 
 448      17
 449 15b8 0D130813 		.ascii	"\015\023\010\023\002\014\017\031\005\027\026\025\000"
 449      020C0F19 
 449      05171615 
 449      00
 450 15c5 1D181016 		.ascii	"\035\030\020\026\002\031\027\030\011\027\001\032\012"
 450      02191718 
 450      0917011A 
 450      0A
 451 15d2 12140519 		.ascii	"\022\024\005\031\000\031\027\035\010\037\020\021\022"
 451      0019171D 
 451      081F1011 
 451      12
 452 15df 1E1A070A 		.ascii	"\036\032\007\012\026\030\007\000\006\020\007\023\026"
 452      16180700 
 452      06100713 
 452      16
 453 15ec 18051418 		.ascii	"\030\005\024\030\011\025\035\024\034\002\026\020\033"
 453      09151D14 
 453      1C021610 
 453      1B
 454 15f9 12161F1D 		.ascii	"\022\026\037\035\020\023\033\027\035\017\014\007\004"
 454      10131B17 
 454      1D0F0C07 
 454      04
 455 1606 02110B05 		.ascii	"\002\021\013\005\010\025\030\015\037\022\023\021\015"
 455      0815180D 
 455      1F121311 
 455      0D
 456 1613 14100F16 		.ascii	"\024\020\017\026\016\022\006\032\025\001\012\002\002"
 456      0E12061A 
 456      15010A02 
 456      02
 457 1620 1A1C130C 		.ascii	"\032\034\023\014\017\007\031\032\007\023\001\001\004"
 457      0F07191A 
 457      07130101 
 457      04
 458 162d 03020E10 		.ascii	"\003\002\016\020\032\013\022\011\013\021\017\021\007"
 458      1A0B1209 
 458      0B110F11 
 458      07
 459 163a 140B0317 		.ascii	"\024\013\003\027\031\010\000\023\011\027\036\010\036"
 459      19080013 
 459      09171E08 
 459      1E
 460 1647 13081A0D 		.ascii	"\023\010\032\015\013\002\020\002\015\006\017\024\015"
 460      0B021002 
 460      0D060F14 
 460      0D
 461 1654 1D021517 		.ascii	"\035\002\025\027\034\015\025\010\017\014\015\016\036"
 461      1C0D1508 
 461      0F0C0D0E 
 461      1E
 462 1661 05171C02 		.ascii	"\005\027\034\002\016\035\031\027\010\036\022\035\033"
 462      0E1D1917 
 462      081E121D 
 462      1B
 463 166e 0909150E 		.ascii	"\011\011\025\016\002\011\021\015\016\012\023\035\031"
 463      0209110D 
 463      0E0A131D 
 463      19
 464 167b 0B01041E 		.ascii	"\013\001\004\036\027\015\016\013\002\020\034\010\024"
 464      170D0E0B 
 464      02101C08 
 464      14
 465 1688 07050C0F 		.ascii	"\007\005\014\017\012\010\005\032\026\033\023\005\034"
 465      0A08051A 
 465      161B1305 
 465      1C
 466 1695 110E0E06 		.ascii	"\021\016\016\006\024\013\033\012\037\010\006\004\017"
 466      140B1B0A 
 466      1F080604 
 466      0F
 467 16a2 12111101 		.ascii	"\022\021\021\001\007\003\030\037\015\036\010\014\014"
 467      0703181F 
 467      0D1E080C 
 467      0C
 468 16af 0A0E0308 		.ascii	"\012\016\003\010\014\031\006\024\023\034\020\032\006"
 468      0C190614 
 468      131C101A 
 468      06
 469 16bc 150C160B 		.ascii	"\025\014\026\013\005\016\012\032\014\002\011\015\001"
 469      050E0A1A 
 469      0C02090D 
 469      01
 470 16c9 081B1708 		.ascii	"\010\033\027\010\004\024\012\021\023\015\031\013\023"
 470      04140A11 
 470      130D190B 
 470      13
 471 16d6 131F1010 		.ascii	"\023\037\020\020\015\011\024\007\007\013\013\030\022"
 471      0D091407 
 471      070B0B18 
 471      12
 472 16e3 0E101C00 		.ascii	"\016\020\034\000\025\003\007\002\002\022\026\011\022"
 472      15030702 
 472      02121609 
 472      12
 473 16f0 0017061B 		.ascii	"\000\027\006\033\022\032\037\026\007\031\016\005\023"
 473      121A1F16 
 473      07190E05 
 473      13
 474 16fd 191E1B12 		.ascii	"\031\036\033\022\026\007\020\010\021\004\017\014\033"
 474      16071008 
 474      11040F0C 
 474      1B
 475 170a 110F1710 		.ascii	"\021\017\027\020\000\020\037\021\006\027\026\006\025"
 475      00101F11 
 475      06171606 
 475      15
 476 1717 0B0D0700 		.ascii	"\013\015\007\000\035\033\032\006\014\035\006\011\023"
 476      1D1B1A06 
 476      0C1D0609 
 476      13
 477 1724 10160D0F 		.ascii	"\020\026\015\017\025\001\021\033\005\005\026\007\035"
 477      1501111B 
 477      05051607 
 477      1D
 478 1731 0D0F0002 		.ascii	"\015\017\000\002\037\026\021\025\025\000\025\002\036"
 478      1F161115 
 478      15001502 
 478      1E
 479 173e 1D060506 		.ascii	"\035\006\005\006\014\017\025\027\000\005\021\032\022"
 479      0C0F1517 
 479      0005111A 
 479      12
 480 174b 100D0013 		.ascii	"\020\015\000\023\037\015\010\010\022\016\000\024\020"
 480      1F0D0808 
 480      120E0014 
 480      10
 481 1758 12110B02 		.ascii	"\022\021\013\002\004\021\002\036\033\017\004\030\030"
 481      0411021E 
 481      1B0F0418 
 481      18
 482 1765 170B1613 		.ascii	"\027\013\026\023\026\015\034\010\010\017\011"
 482      160D1C08 
 482      080F09
 483 1770 150E020B 		.ascii	"\025\016\002\013\026\036\000\026\023\023\035\027\011"
 483      161E0016 
 483      13131D17 
 483      09
 484 177d 1F061F01 		.ascii	"\037\006\037\001\021\024\015\036\010\035\014\002\033"
 484      11140D1E 
 484      081D0C02 
 484      1B
 485 178a 08080D15 		.ascii	"\010\010\015\025\015\024\026\022\017\016\037\005\003"
 485      0D141612 
 485      0F0E1F05 
 485      03
 486 1797 1A150919 		.ascii	"\032\025\011\031\005\017\017\000\027\017\036\000\022"
 486      050F0F00 
 486      170F1E00 
 486      12
 487 17a4 191A101D 		.ascii	"\031\032\020\035\006\005\034\035\033\013\013\016\007"
 487      06051C1D 
 487      1B0B0B0E 
 487      07
 488 17b1 0A111906 		.ascii	"\012\021\031\006\014\006\032\032\030\011\021\006\037"
 488      0C061A1A 
 488      18091106 
 488      1F
 489 17be 0D021C17 		.ascii	"\015\002\034\027\003\033\002\012\012\012\006\030\012"
 489      031B020A 
 489      0A0A0618 
 489      0A
 490 17cb 0E1E1216 		.ascii	"\016\036\022\026\003\013\023\024\034\016\012\013\020"
 490      030B1314 
 490      1C0E0A0B 
 490      10
 491 17d8 16181E1B 		.ascii	"\026\030\036\033\015\013\016\003\015\030\035\001\013"
 491      0D0B0E03 
 491      0D181D01 
 491      0B
 492 17e5 1C1D0105 		.ascii	"\034\035\001\005\031\001\024\020\001\004\032\000\000"
 492      19011410 
 492      01041A00 
 492      00
 493 17f2 0E0C0A01 		.ascii	"\016\014\012\001\006\001\006\014\017\014\035\036\022"
 493      0601060C 
 493      0F0C1D1E 
 493      12
 494 17ff 011F1400 		.ascii	"\001\037\024\000\006\026\013\025\036\033\012\034\036"
 494      06160B15 
 494      1E1B0A1C 
 494      1E
 495 180c 0E1A0500 		.ascii	"\016\032\005\000\023\015\004\034\020\031\036\016\007"
 495      130D041C 
 495      10191E0E 
 495      07
 496 1819 130C1B17 		.ascii	"\023\014\033\027\016\033\002\012\015\004\037\037\030"
 496      0E1B020A 
 496      0D041F1F 
 496      18
 497 1826 12120907 		.ascii	"\022\022\011\007\037\017\012\014\000\017\010\013\030"
 497      1F0F0A0C 
 497      000F080B 
 497      18
 498 1833 08070F0D 		.ascii	"\010\007\017\015\032\017\004\014\023\036\016\010\022"
 498      1A0F040C 
 498      131E0E08 
 498      12
 499 1840 071B0A17 		.ascii	"\007\033\012\027\000\037\010\027\013\033\022\024\026"
 499      001F0817 
 499      0B1B1214 
 499      16
 500 184d 15020014 		.ascii	"\025\002\000\024\013\004\033\011\035\012\024\024\022"
 500      0B041B09 
 500      1D0A1414 
 500      12
 501 185a 19180906 		.ascii	"\031\030\011\006\014\025\036\011\026\013\032\024\011"
 501      0C151E09 
 501      160B1A14 
 501      09
 502 1867 05070715 		.ascii	"\005\007\007\025\030\017\000\027\002\014\002\002\025"
 502      180F0017 
 502      020C0202 
 502      15
 503 1874 1316050E 		.ascii	"\023\026\005\016\010\015\035\002\035\014\026\030\000"
 503      080D1D02 
 503      1D0C1618 
 503      00
 504 1881 17100108 		.ascii	"\027\020\001\010\010\011\031\034\015\027\006\033\021"
 504      0809191C 
 504      0D17061B 
 504      11
 505 188e 0E17011D 		.ascii	"\016\027\001\035\034\037\022\007\037\001\034\036\012"
 505      1C1F1207 
 505      1F011C1E 
 505      0A
 506 189b 111D0A1C 		.ascii	"\021\035\012\034\031\033\020\013\012\026\023\031\012"
 506      191B100B 
 506      0A161319 
 506      0A
 507 18a8 140B0112 		.ascii	"\024\013\001\022\012\003\003\014\027\020\015\010\013"
 507      0A03030C 
 507      17100D08 
 507      0B
 508 18b5 000C0F0F 		.ascii	"\000\014\017\017\006\037\016\036\001\023\011\034\022"
 508      061F0E1E 
 508      0113091C 
 508      12
 509 18c2 0C131608 		.ascii	"\014\023\026\010\021\003\011\017\013\037\003\036\011"
 509      1103090F 
 509      0B1F031E 
 509      09
 510 18cf 1D1B150D 		.ascii	"\035\033\025\015\036\005\001\001\026\025\016\016\003"
 510      1E050101 
 510      16150E0E 
 510      03
 511 18dc 1A120806 		.ascii	"\032\022\010\006\011\033\020\034\017\012\003\015\015"
 511      091B101C 
 511      0F0A030D 
 511      0D
 512 18e9 0012060C 		.ascii	"\000\022\006\014\004\031\022\021\000\004\026\003\025"
 512      04191211 
 512      00041603 
 512      15
 513 18f6 0A1F161E 		.ascii	"\012\037\026\036\023\016\022\014\022\031\017\025\027"
 513      130E120C 
 513      12190F15 
 513      17
 514 1903 05100C0C 		.ascii	"\005\020\014\014\011\004\013\021\006\015\027\027\020"
 514      09040B11 
 514      060D1717 
 514      10
 515 1910 01100A16 		.ascii	"\001\020\012\026\012\027\001\016\013\014\011\027\030"
 515      0A17010E 
 515      0B0C0917 
 515      18
 516 191d 01010B10 		.ascii	"\001\001\013\020\037\026\005\026\000\027\037\004\007"
 516      1F160516 
 516      00171F04 
 516      07
 517 192a 0B030911 		.ascii	"\013\003\011\021\032\003\033\004\034\030\030\025\021"
 517      1A031B04 
 517      1C181815 
 517      11
 518 1937 1A1B1612 		.ascii	"\032\033\026\022\001\036\024\025\021\022\035\032\025"
 518      011E1415 
 518      11121D1A 
 518      15
 519 1944 020F1115 		.ascii	"\002\017\021\025\026\015\014\013\011\037\012\004\034"
 519      160D0C0B 
 519      091F0A04 
 519      1C
 520 1951 190D0905 		.ascii	"\031\015\011\005\035\034\015\014\036\011\033\031\003"
 520      1D1C0D0C 
 520      1E091B19 
 520      03
 521 195e 0006000E 		.ascii	"\000\006\000\016\023\036\017\034\020\011\007\003\022"
 521      131E0F1C 
 521      10090703 
 521      12
 522 196b 050E1001 		.ascii	"\005\016\020\001\000\037\036\023\032\022\005\034\012"
 522      001F1E13 
 522      1A12051C 
 522      0A
 523 1978 08181417 		.ascii	"\010\030\024\027\020\003\027\036\011\037\030\000\002"
 523      1003171E 
 523      091F1800 
 523      02
 524 1985 1E0F1C11 		.ascii	"\036\017\034\021\031\032\005\014\017\013\037\036\037"
 524      191A050C 
 524      0F0B1F1E 
 524      1F
 525 1992 01000A0A 		.ascii	"\001\000\012\012\021\010\011\027\025\027\037\011\024"
 525      11080917 
 525      15171F09 
 525      14
 526 199f 090D040E 		.ascii	"\011\015\004\016\025\021\022\032\011\033\002\004\031"
 526      1511121A 
 526      091B0204 
 526      19
 527 19ac 0E131E16 		.ascii	"\016\023\036\026\007\000\025\015\026\017\013\014\000"
 527      0700150D 
 527      160F0B0C 
 527      00
 528 19b9 18120415 		.ascii	"\030\022\004\025\025\006\020\005\012\001\030\033\007"
 528      15061005 
 528      0A01181B 
 528      07
 529 19c6 100B0715 		.ascii	"\020\013\007\025\012\036\017\031\005\035\035\007\034"
 529      0A1E0F19 
 529      051D1D07 
 529      1C
 530 19d3 1E110B09 		.ascii	"\036\021\013\011\001\021\035\027\005\015\034\035\026"
 530      01111D17 
 530      050D1C1D 
 530      16
 531 19e0 0F07081E 		.ascii	"\017\007\010\036\033\014\021\005\003\011\010\036\012"
 531      1B0C1105 
 531      0309081E 
 531      0A
 532 19ed 0E101A1E 		.ascii	"\016\020\032\036\016\004\016\014\020\037\012\032\003"
 532      0E040E0C 
 532      101F0A1A 
 532      03
 533 19fa 0C100C00 		.ascii	"\014\020\014\000\022\017\035\021\015\011\021\032\036"
 533      120F1D11 
 533      0D09111A 
 533      1E
 534 1a07 1D0D0D1C 		.ascii	"\035\015\015\034\004\012\015\001\036\024\014\023\014"
 534      040A0D01 
 534      1E140C13 
 534      0C
 535 1a14 050A1C1B 		.ascii	"\005\012\034\033\026\012\032\002\001\015\012\016\006"
 535      160A1A02 
 535      010D0A0E 
 535      06
 536 1a21 0C13071C 		.ascii	"\014\023\007\034\020\031\005\003\035\024\002\010\004"
 536      10190503 
 536      1D140208 
 536      04
 537 1a2e 1C170F13 		.ascii	"\034\027\017\023\014\023\016\003\026\024\022\013\022"
 537      0C130E03 
 537      1614120B 
 537      12
 538 1a3b 1A151119 		.ascii	"\032\025\021\031\023\035\032\010\037\037\033\034\005"
 538      131D1A08 
 538      1F1F1B1C 
 538      05
 539 1a48 01131201 		.ascii	"\001\023\022\001\034\027\020\023\000\016\016\034\026"
 539      1C171013 
 539      000E0E1C 
 539      16
 540 1a55 17190819 		.ascii	"\027\031\010\031\027\002\015\023\037\022\032\000\033"
 540      17020D13 
 540      1F121A00 
 540      1B
 541 1a62 10140D11 		.ascii	"\020\024\015\021\004\000\007\001\012\021\015\025\034"
 541      04000701 
 541      0A110D15 
 541      1C
 542 1a6f 1C0A0611 		.ascii	"\034\012\006\021\025\005\014\014\010\021\002\020\015"
 542      15050C0C 
 542      08110210 
 542      0D
 543 1a7c 0B1C0A08 		.ascii	"\013\034\012\010\002\036\017\030\002\024\001\036\031"
 543      021E0F18 
 543      0214011E 
 543      19
 544 1a89 1D0B0404 		.ascii	"\035\013\004\004\015\001\031\001\015\033\012\012\012"
 544      0D011901 
 544      0D1B0A0A 
 544      0A
 545 1a96 14070E1A 		.ascii	"\024\007\016\032\023\002\011\006\016\016\012\027\027"
 545      13020906 
 545      0E0E0A17 
 545      17
 546 1aa3 0A110502 		.ascii	"\012\021\005\002\031\013\025\002\007\024\004\031\002"
 546      190B1502 
 546      07140419 
 546      02
 547 1ab0 1C050003 		.ascii	"\034\005\000\003\027\005\037\006\033\034\014\017\034"
 547      17051F06 
 547      1B1C0C0F 
 547      1C
 548 1abd 1E0E0502 		.ascii	"\036\016\005\002\032\022\024\036\005\030\002\030\010"
 548      1A12141E 
 548      05180218 
 548      08
 549 1aca 0302191A 		.ascii	"\003\002\031\032\011\024\005\035\006\017\001\020\014"
 549      0914051D 
 549      060F0110 
 549      0C
 550 1ad7 060F041F 		.ascii	"\006\017\004\037\005\023\010\004\035\027\035\034\037"
 550      05130804 
 550      1D171D1C 
 550      1F
 551 1ae4 09180413 		.ascii	"\011\030\004\023\022\011\006\016\036\003\003\023\014"
 551      1209060E 
 551      1E030313 
 551      0C
 552 1af1 19161B05 		.ascii	"\031\026\033\005\037\014\035\011\034\022\032\011\003"
 552      1F0C1D09 
 552      1C121A09 
 552      03
 553 1afe 031D080D 		.ascii	"\003\035\010\015\021\032\011\027\012\033\005\023\035"
 553      111A0917 
 553      0A1B0513 
 553      1D
 554 1b0b 08060101 		.ascii	"\010\006\001\001\003\003\025\005\017\001\034\034\030"
 554      03031505 
 554      0F011C1C 
 554      18
 555 1b18 0E071C07 		.ascii	"\016\007\034\007\037\024\026\035\037\023\004\034\036"
 555      1F14161D 
 555      1F13041C 
 555      1E
 556 1b25 06181410 		.ascii	"\006\030\024\020\032\017\002\007\036\023\011\002\014"
 556      1A0F0207 
 556      1E130902 
 556      0C
 557 1b32 1D101B1F 		.ascii	"\035\020\033\037\003\021\001\016\007\035\013\013\036"
 557      0311010E 
 557      071D0B0B 
 557      1E
 558 1b3f 01170B08 		.ascii	"\001\027\013\010\037\033\002\000\014\024\033\007\025"
 558      1F1B0200 
 558      0C141B07 
 558      15
 559 1b4c 1A19170E 		.ascii	"\032\031\027\016\032\016\014\004\037\032\002\003\013"
 559      1A0E0C04 
 559      1F1A0203 
 559      0B
 560 1b59 04010F1C 		.ascii	"\004\001\017\034\025\030\021\013\017\006\001\003\013"
 560      1518110B 
 560      0F060103 
 560      0B
 561 1b66 0111020C 		.ascii	"\001\021\002\014\035\025\001\032\003\013\005\001\001"
 561      1D15011A 
 561      030B0501 
 561      01
 562 1b73 1F17071D 		.ascii	"\037\027\007\035\013\007\026\036\007\032\030\016\017"
 562      0B07161E 
 562      071A180E 
 562      0F
 563 1b80 12040C1D 		.ascii	"\022\004\014\035\035\031\024\026\026\016\032\014\003"
 563      1D191416 
 563      160E1A0C 
 563      03
 564 1b8d 0C151F16 		.ascii	"\014\025\037\026\002\027\005\000\001\032\016\000\023"
 564      02170500 
 564      011A0E00 
 564      13
 565 1b9a 0D120E0E 		.ascii	"\015\022\016\016\025\001\037\016\005\037\023\003\001"
 565      15011F0E 
 565      051F1303 
 565      01
 566 1ba7 0F130414 		.ascii	"\017\023\004\024\034\000\010\002\027\007\030\003\012"
 566      1C000802 
 566      17071803 
 566      0A
 567 1bb4 0912171A 		.ascii	"\011\022\027\032\030\022\026\020\030\021\036\021\003"
 567      18121610 
 567      18111E11 
 567      03
 568 1bc1 0315101F 		.ascii	"\003\025\020\037\027\033\015\035\027\021\027\013\013"
 568      171B0D1D 
 568      1711170B 
 568      0B
 569 1bce 110A1A15 		.ascii	"\021\012\032\025\020\023\026\023\024\021\025\026\033"
 569      10131613 
 569      14111516 
 569      1B
 570 1bdb 16070C13 		.ascii	"\026\007\014\023\000\020\033\024\027\003\000\032\026"
 570      00101B14 
 570      1703001A 
 570      16
 571 1be8 11060F19 		.ascii	"\021\006\017\031\035\017\036\017\003\031\014\021\025"
 571      1D0F1E0F 
 571      03190C11 
 571      15
 572 1bf5 1C1B0111 		.ascii	"\034\033\001\021\015\007\007\026\032\027\025\003\005"
 572      0D070716 
 572      1A171503 
 572      05
 573 1c02 0D140010 		.ascii	"\015\024\000\020\025\024\015\023\004\024\034\036\014"
 573      15140D13 
 573      04141C1E 
 573      0C
 574 1c0f 081C0D19 		.ascii	"\010\034\015\031\033\032\001\021\014\032\006\032\005"
 574      1B1A0111 
 574      0C1A061A 
 574      05
 575 1c1c 1D181609 		.ascii	"\035\030\026\011\030\001\006\015\012\005\037\016\033"
 575      1801060D 
 575      0A051F0E 
 575      1B
 576 1c29 0E0F120E 		.ascii	"\016\017\022\016\013\035\013\022\013\024\012\033\006"
 576      0B1D0B12 
 576      0B140A1B 
 576      06
 577 1c36 1C021A09 		.ascii	"\034\002\032\011\005\021\015\034\031\004\023\005\016"
 577      05110D1C 
 577      19041305 
 577      0E
 578 1c43 0504180F 		.ascii	"\005\004\030\017\001\015\014\012\012\012\027\001\010"
 578      010D0C0A 
 578      0A0A1701 
 578      08
 579 1c50 0007051D 		.ascii	"\000\007\005\035\025\023\032\006\013\011\016\014\003"
 579      15131A06 
 579      0B090E0C 
 579      03
 580 1c5d 04070300 		.ascii	"\004\007\003\000\014\036\000\031\033\023\022\030\036"
 580      0C1E0019 
 580      1B131218 
 580      1E
 581 1c6a 18121E17 		.ascii	"\030\022\036\027\005\027\006\035\010\011\000\023\007"
 581      0517061D 
 581      08090013 
 581      07
 582 1c77 1A090F10 		.ascii	"\032\011\017\020\032\027\033\022\002\006\010\004\036"
 582      1A171B12 
 582      02060804 
 582      1E
 583 1c84 1F071A00 		.ascii	"\037\007\032\000\010\010\011\017\025\010\034\003\007"
 583      0808090F 
 583      15081C03 
 583      07
 584 1c91 131B0314 		.ascii	"\023\033\003\024\012\003\024\025\033\034\027\006\031"
 584      0A031415 
 584      1B1C1706 
 584      19
 585 1c9e 01031609 		.ascii	"\001\003\026\011\016\022\000\005\032\000\003\022\007"
 585      0E120005 
 585      1A000312 
 585      07
 586 1cab 15001916 		.ascii	"\025\000\031\026\011\024\012\033\000\000\035\027\001"
 586      09140A1B 
 586      00001D17 
 586      01
 587 1cb8 081D1D1F 		.ascii	"\010\035\035\037\011\032\012\016\022\004\037\000\021"
 587      091A0A0E 
 587      12041F00 
 587      11
 588 1cc5 121C121A 		.ascii	"\022\034\022\032\031\000\030\015\006\032\031\033\013"
 588      1900180D 
 588      061A191B 
 588      0B
 589 1cd2 01031F1A 		.ascii	"\001\003\037\032\013\034\026\014\002\011\006\003\020"
 589      0B1C160C 
 589      02090603 
 589      10
 590 1cdf 0204051B 		.ascii	"\002\004\005\033\017\031\006\031\022\022\037\034\010"
 590      0F190619 
 590      12121F1C 
 590      08
 591 1cec 1E011908 		.ascii	"\036\001\031\010\033\021\033\013\000\004\031\006\000"
 591      1B111B0B 
 591      00041906 
 591      00
 592 1cf9 0415101F 		.ascii	"\004\025\020\037\021\005\034\004\003\010\004\001\032"
 592      11051C04 
 592      03080401 
 592      1A
 593 1d06 1E0D1E07 		.ascii	"\036\015\036\007\035\000\002\002\035\001\036\002\011"
 593      1D000202 
 593      1D011E02 
 593      09
 594 1d13 151D0010 		.ascii	"\025\035\000\020\025\026\031\020\035\036\036\035\012"
 594      15161910 
 594      1D1E1E1D 
 594      0A
 595 1d20 050A1B05 		.ascii	"\005\012\033\005\032\001\023\016\003\027\004\010\002"
 595      1A01130E 
 595      03170408 
 595      02
 596 1d2d 0417020A 		.ascii	"\004\027\002\012\015\012\006\021\012\020\010\013\010"
 596      0D0A0611 
 596      0A10080B 
 596      08
 597 1d3a 061F191D 		.ascii	"\006\037\031\035\024\020\026\031\034\037\026\021\023"
 597      14101619 
 597      1C1F1611 
 597      13
 598 1d47 1C0C1016 		.ascii	"\034\014\020\026\012\025\021\027\022\033\020\016\027"
 598      0A151117 
 598      121B100E 
 598      17
 599 1d54 07170F00 		.ascii	"\007\027\017\000\014\024\031\020\026\025\025\037\013"
 599      0C141910 
 599      1615151F 
 599      0B
 600 1d61 1F0D091F 		.ascii	"\037\015\011\037\005\025\033\025\025\015\036\001\025"
 600      05151B15 
 600      150D1E01 
 600      15
 601 1d6e 121D1A06 		.ascii	"\022\035\032\006\025\017\017\025\010\037\017\016\007"
 601      150F0F15 
 601      081F0F0E 
 601      07
 602 1d7b 1208150D 		.ascii	"\022\010\025\015\035\021\023\021\017\013\010\024\020"
 602      1D111311 
 602      0F0B0814 
 602      10
 603 1d88 1408080E 		.ascii	"\024\010\010\016\011\007\023\007\013\027\013\037\021"
 603      09071307 
 603      0B170B1F 
 603      11
 604 1d95 02110F0B 		.ascii	"\002\021\017\013\037\002\035\017\010\006\012\020\030"
 604      1F021D0F 
 604      08060A10 
 604      18
 605 1da2 03030F0D 		.ascii	"\003\003\017\015\004\037\006\021\021\034\022\011\006"
 605      041F0611 
 605      111C1209 
 605      06
 606 1daf 0B00050C 		.ascii	"\013\000\005\014\027\036\020\035\024\007\000\002\020"
 606      171E101D 
 606      14070002 
 606      10
 607 1dbc 001F0606 		.ascii	"\000\037\006\006\013\021\014\014\001\025\025\007\005"
 607      0B110C0C 
 607      01151507 
 607      05
 608 1dc9 100B0707 		.ascii	"\020\013\007\007\021\030\034\020\007\005\020\025\014"
 608      11181C10 
 608      07051015 
 608      0C
 609 1dd6 070E1A03 		.ascii	"\007\016\032\003\003\015\012\016\006\000\003\015\034"
 609      030D0A0E 
 609      0600030D 
 609      1C
 610 1de3 0D0D071F 		.ascii	"\015\015\007\037\033\032\011\000\030\013\017\033\022"
 610      1B1A0900 
 610      180B0F1B 
 610      12
 611 1df0 0B1C071A 		.ascii	"\013\034\007\032\004\007\034\013\002\011\024\035\014"
 611      04071C0B 
 611      0209141D 
 611      0C
 612 1dfd 0C0C0716 		.ascii	"\014\014\007\026\007\026\030\004\004\023\032\000\001"
 612      07161804 
 612      04131A00 
 612      01
 613 1e0a 12181D1D 		.ascii	"\022\030\035\035\013\023\021\021\002\026\003\037\021"
 613      0B131111 
 613      0216031F 
 613      11
 614 1e17 1B131614 		.ascii	"\033\023\026\024\032\025\024\026\013\024\000\001\012"
 614      1A151416 
 614      0B140001 
 614      0A
 615 1e24 03060B01 		.ascii	"\003\006\013\001\033\035\011\011\032\022\021\020\001"
 615      1B1D0909 
 615      1A121110 
 615      01
 616 1e31 041D0E1B 		.ascii	"\004\035\016\033\035\023\030\027\030\006\003\014\016"
 616      1D131817 
 616      1806030C 
 616      0E
 617 1e3e 0315141A 		.ascii	"\003\025\024\032\015\032\002\031\026\024\011\001\037"
 617      0D1A0219 
 617      16140901 
 617      1F
 618 1e4b 12181D1C 		.ascii	"\022\030\035\034\015\012\006\007\021\005\010\032\022"
 618      0D0A0607 
 618      1105081A 
 618      12
 619 1e58 111C000C 		.ascii	"\021\034\000\014\010\006\006\006\006\025\011\023\006"
 619      08060606 
 619      06150913 
 619      06
 620 1e65 1416101D 		.ascii	"\024\026\020\035\003\004\027\021\025\016\036\007\015"
 620      03041711 
 620      150E1E07 
 620      0D
 621 1e72 0B03011E 		.ascii	"\013\003\001\036\001\021\022\033\004\006\010\026\024"
 621      0111121B 
 621      04060816 
 621      14
 622 1e7f 000D1301 		.ascii	"\000\015\023\001\013\010\021\020\007\003\014\006\012"
 622      0B081110 
 622      07030C06 
 622      0A
 623 1e8c 170D1902 		.ascii	"\027\015\031\002\014\013\034\016\004\006\033\030\033"
 623      0C0B1C0E 
 623      04061B18 
 623      1B
 624 1e99 071C1A12 		.ascii	"\007\034\032\022\006\016\010\025\006\017\020\030\023"
 624      060E0815 
 624      060F1018 
 624      13
 625 1ea6 130A0D0D 		.ascii	"\023\012\015\015\006\002\021\030\017\036\034\000\026"
 625      06021118 
 625      0F1E1C00 
 625      16
 626 1eb3 0B100A1F 		.ascii	"\013\020\012\037\011\034\003\022\011\011\005\035\005"
 626      091C0312 
 626      0909051D 
 626      05
 627 1ec0 00121D19 		.ascii	"\000\022\035\031\012\007\017\004\013\002\023\014\016"
 627      0A070F04 
 627      0B02130C 
 627      0E
 628 1ecd 0E111309 		.ascii	"\016\021\023\011\003\021\012\036\012\017\034\037\021"
 628      03110A1E 
 628      0A0F1C1F 
 628      11
 629 1eda 00081307 		.ascii	"\000\010\023\007\030\011\024\016\012\006\002\034\016"
 629      1809140E 
 629      0A06021C 
 629      0E
 630 1ee7 0E120519 		.ascii	"\016\022\005\031\012\015\023\036\010\034\023\035\034"
 630      0A0D131E 
 630      081C131D 
 630      1C
 631 1ef4 0D00041F 		.ascii	"\015\000\004\037\037\020\033\034\006\001\016\017\011"
 631      1F101B1C 
 631      06010E0F 
 631      09
 632 1f01 19150C19 		.ascii	"\031\025\014\031\011\000\037\025\011\007\031\013\012"
 632      09001F15 
 632      0907190B 
 632      0A
 633 1f0e 0D100E0A 		.ascii	"\015\020\016\012\026\026\031\000\002\014\003\007\033"
 633      16161900 
 633      020C0307 
 633      1B
 634 1f1b 031F0015 		.ascii	"\003\037\000\025\024\002\037\026\014\012\026\005\020"
 634      14021F16 
 634      0C0A1605 
 634      10
 635 1f28 00050C1A 		.ascii	"\000\005\014\032\033\034\026\007\031\027\025\032\020"
 635      1B1C1607 
 635      1917151A 
 635      10
 636 1f35 1D0B000C 		.ascii	"\035\013\000\014\023\037\030\024\030\033\037"
 636      131F1814 
 636      181B1F
 637 1f40 09010B06 		.ascii	"\011\001\013\006\022\035\035\024\002\024\027\003\002"
 637      121D1D14 
 637      02141703 
 637      02
 638 1f4d 0C0F111E 		.ascii	"\014\017\021\036\006\016\023\033\015\000\031\007\025"
 638      060E131B 
 638      0D001907 
 638      15
 639 1f5a 1D1C1706 		.ascii	"\035\034\027\006\002\030\030\002\014\012\015\012\010"
 639      02181802 
 639      0C0A0D0A 
 639      08
 640 1f67 19181B01 		.ascii	"\031\030\033\001\026\003\032\020\017\011\036\021\036"
 640      16031A10 
 640      0F091E11 
 640      1E
 641 1f74 011F1113 		.ascii	"\001\037\021\023\025\023\011\036\002\034\030\003\027"
 641      1513091E 
 641      021C1803 
 641      17
 642 1f81 1908021D 		.ascii	"\031\010\002\035\017\002\004\030\000\031\027\003\037"
 642      0F020418 
 642      00191703 
 642      1F
 643 1f8e 03011500 		.ascii	"\003\001\025\000\025\007\024\024\034\016\002\014\012"
 643      15071414 
 643      1C0E020C 
 643      0A
 644 1f9b 0B130604 		.ascii	"\013\023\006\004\024\005\022\036\000\017\036\011\024"
 644      1405121E 
 644      000F1E09 
 644      14
 645 1fa8 02090F11 		.ascii	"\002\011\017\021\021\000\023\021\011\034\012\001\023"
 645      11001311 
 645      091C0A01 
 645      13
 646 1fb5 0B1A0212 		.ascii	"\013\032\002\022\035\021\021\025\004\002\016\033\032"
 646      1D111115 
 646      04020E1B 
 646      1A
 647 1fc2 0E130604 		.ascii	"\016\023\006\004\017\033\030\016\037\035\030\025\027"
 647      0F1B180E 
 647      1F1D1815 
 647      17
 648 1fcf 05141D0F 		.ascii	"\005\024\035\017\011\001\026\005\003\024\031\035\010"
 648      09011605 
 648      0314191D 
 648      08
 649 1fdc 1C0A1018 		.ascii	"\034\012\020\030\017\002\014\036\010\021\000\031\010"
 649      0F020C1E 
 649      08110019 
 649      08
 650 1fe9 181A0306 		.ascii	"\030\032\003\006\023\023\004\032\023\035\011\037\006"
 650      1313041A 
 650      131D091F 
 650      06
 651 1ff6 100C061F 		.ascii	"\020\014\006\037\000\007\021\022\022\005\013\024\002"
 651      00071112 
 651      12050B14 
 651      02
 652 2003 0A11010D 		.ascii	"\012\021\001\015\022\037\020\007\026\014\012\017\027"
 652      121F1007 
 652      160C0A0F 
 652      17
 653 2010 1D120D0C 		.ascii	"\035\022\015\014\002\001\026\015\016\001\032\021\036"
 653      0201160D 
 653      0E011A11 
 653      1E
 654 201d 0F0F0703 		.ascii	"\017\017\007\003\022\033\022\035\022\035\013\011\012"
 654      121B121D 
 654      121D0B09 
 654      0A
 655 202a 160E1E17 		.ascii	"\026\016\036\027\032\001\037\023\034\003\000\007\022"
 655      1A011F13 
 655      1C030007 
 655      12
 656 2037 0409091C 		.ascii	"\004\011\011\034\030\032\006\015\020\017\027\023\011"
 656      181A060D 
 656      100F1713 
 656      09
 657 2044 1218071A 		.ascii	"\022\030\007\032\005\021\036\006\037\026\001\024\035"
 657      05111E06 
 657      1F160114 
 657      1D
 658 2051 0E061E0A 		.ascii	"\016\006\036\012\026\020\011\024\034\021\010\027\027"
 658      16100914 
 658      1C110817 
 658      17
 659 205e 180B1006 		.ascii	"\030\013\020\006\034\023\031\032\027\022\035\015\010"
 659      1C13191A 
 659      17121D0D 
 659      08
 660 206b 0E050717 		.ascii	"\016\005\007\027\017\035\025\000\032\016\022\004\035"
 660      0F1D1500 
 660      1A0E1204 
 660      1D
 661 2078 1213190B 		.ascii	"\022\023\031\013\012\000\020\013\002\031\013\011\021"
 661      0A00100B 
 661      02190B09 
 661      11
 662 2085 0E191916 		.ascii	"\016\031\031\026\035\036\026\012\026\005\026\015\034"
 662      1D1E160A 
 662      1605160D 
 662      1C
 663 2092 02101A12 		.ascii	"\002\020\032\022\025\033\020\012\004\003\037\003\007"
 663      151B100A 
 663      04031F03 
 663      07
 664 209f 00051F19 		.ascii	"\000\005\037\031\005\007\036\001\010\020\021\023\026"
 664      05071E01 
 664      08101113 
 664      16
 665 20ac 0D191703 		.ascii	"\015\031\027\003\020\001\017\036\005\010\030\016\016"
 665      10010F1E 
 665      0508180E 
 665      0E
 666 20b9 0C131F13 		.ascii	"\014\023\037\023\027\034\014\002\025\005\036\010\015"
 666      171C0C02 
 666      15051E08 
 666      0D
 667 20c6 1F1A1001 		.ascii	"\037\032\020\001\025\025\005\032\011\023\020\027\016"
 667      1515051A 
 667      09131017 
 667      0E
 668 20d3 07011310 		.ascii	"\007\001\023\020\031\016\006\032\004\027\036\032\035"
 668      190E061A 
 668      04171E1A 
 668      1D
 669 20e0 12150D1E 		.ascii	"\022\025\015\036\020\035\017\033\011\010\015\020\033"
 669      101D0F1B 
 669      09080D10 
 669      1B
 670 20ed 0C150703 		.ascii	"\014\025\007\003\016\016\000\023\030\030\017\000\025"
 670      0E0E0013 
 670      18180F00 
 670      15
 671 20fa 1E0F0414 		.ascii	"\036\017\004\024\022\021\012\016\004\027\013\037\013"
 671      12110A0E 
 671      04170B1F 
 671      0B
 672 2107 0B051310 		.ascii	"\013\005\023\020\012\036\033\023\012\013\020\017\020"
 672      0A1E1B13 
 672      0A0B100F 
 672      10
 673 2114 040F1E10 		.ascii	"\004\017\036\020\030\022\032\030\011\006\016\012\020"
 673      18121A18 
 673      09060E0A 
 673      10
 674 2121 1613131E 		.ascii	"\026\023\023\036\001\001\036\012\015\020\014\025\001"
 674      01011E0A 
 674      0D100C15 
 674      01
 675 212e 051E0C15 		.ascii	"\005\036\014\025\030\036\012\002\010\017\030\033\011"
 675      181E0A02 
 675      080F181B 
 675      09
 676 213b 1C191103 		.ascii	"\034\031\021\003\002\003\030\013\031\032\030\034\007"
 676      0203180B 
 676      191A181C 
 676      07
 677 2148 16010C1E 		.ascii	"\026\001\014\036\017\022\012\002\015\010\021\026\016"
 677      0F120A02 
 677      0D081116 
 677      0E
 678 2155 130F1213 		.ascii	"\023\017\022\023\031\030\017\036\013\035\026\025\015"
 678      19180F1E 
 678      0B1D1615 
 678      0D
 679 2162 1E06090B 		.ascii	"\036\006\011\013\025\030\034\005\015\022\025\012\003"
 679      15181C05 
 679      0D12150A 
 679      03
 680 216f 150E0F1C 		.ascii	"\025\016\017\034\037\001\027\034\036\016\007\014\017"
 680      1F01171C 
 680      1E0E070C 
 680      0F
 681 217c 18101D1C 		.ascii	"\030\020\035\034\012\006\010\007\035\030\025\034\017"
 681      0A060807 
 681      1D18151C 
 681      0F
 682 2189 050D0113 		.ascii	"\005\015\001\023\002\006\020\036\010\020\026\026\010"
 682      0206101E 
 682      08101616 
 682      08
 683 2196 141B0919 		.ascii	"\024\033\011\031\036\021\027\015\015\031\030\022\001"
 683      1E11170D 
 683      0D191812 
 683      01
 684 21a3 1F040A0D 		.ascii	"\037\004\012\015\017\023\032\015\027\000\031\031\006"
 684      0F131A0D 
 684      17001919 
 684      06
 685 21b0 0F1A050A 		.ascii	"\017\032\005\012\010\021\017\013\021\015\033\012\007"
 685      08110F0B 
 685      110D1B0A 
 685      07
 686 21bd 0F131F1F 		.ascii	"\017\023\037\037\024\014\002\035\026\005\032\003\012"
 686      140C021D 
 686      16051A03 
 686      0A
 687 21ca 1E161D13 		.ascii	"\036\026\035\023\005\001\022\027\000\026\037\027\036"
 687      05011217 
 687      00161F17 
 687      1E
 688 21d7 1E060905 		.ascii	"\036\006\011\005\024\021\032\020\002\030\004\037\024"
 688      14111A10 
 688      0218041F 
 688      14
 689 21e4 19170D01 		.ascii	"\031\027\015\001\026\033\037\014\016\003\002\030\010"
 689      161B1F0C 
 689      0E030218 
 689      08
 690 21f1 191D0D19 		.ascii	"\031\035\015\031\000\002\007\036\016\005\017\013\037"
 690      0002071E 
 690      0E050F0B 
 690      1F
 691 21fe 01150208 		.ascii	"\001\025\002\010\037\026\012\001\033\005\024\002\032"
 691      1F160A01 
 691      1B051402 
 691      1A
 692 220b 0518040D 		.ascii	"\005\030\004\015\032\011\005\037\017\020\037\031\012"
 692      1A09051F 
 692      0F101F19 
 692      0A
 693 2218 1F051F1F 		.ascii	"\037\005\037\037\001\002\027\023\007\010\025\032\027"
 693      01021713 
 693      0708151A 
 693      17
 694 2225 07040C0D 		.ascii	"\007\004\014\015\005\021\012\023\033\017\026\022\005"
 694      05110A13 
 694      1B0F1612 
 694      05
 695 2232 1617001D 		.ascii	"\026\027\000\035\014\022\014\021\035\025\011\012\017"
 695      0C120C11 
 695      1D15090A 
 695      0F
 696 223f 081C0004 		.ascii	"\010\034\000\004\000\033\006\030\003\003\002\000\007"
 696      001B0618 
 696      03030200 
 696      07
 697 224c 1D18050D 		.ascii	"\035\030\005\015\023\036\007\035\027\026\032\037\001"
 697      131E071D 
 697      17161A1F 
 697      01
 698 2259 00070806 		.ascii	"\000\007\010\006\026\014\011\026\024\017\003\020\010"
 698      160C0916 
 698      140F0310 
 698      08
 699 2266 071C0409 		.ascii	"\007\034\004\011\002\032\002\032\037\037\016\022\036"
 699      021A021A 
 699      1F1F0E12 
 699      1E
 700 2273 1001020E 		.ascii	"\020\001\002\016\006\025\000\022\011\014\006\002\011"
 700      06150012 
 700      090C0602 
 700      09
 701 2280 1519011F 		.ascii	"\025\031\001\037\021\007\035\000\004\033\011\017\037"
 701      11071D00 
 701      041B090F 
 701      1F
 702 228d 121D0509 		.ascii	"\022\035\005\011\037\010\000\004\002\003\016\035\015"
 702      1F080004 
 702      02030E1D 
 702      0D
 703 229a 03171109 		.ascii	"\003\027\021\011\031\024\035\031\022\016\033\027\011"
 703      19141D19 
 703      120E1B17 
 703      09
 704 22a7 1002171A 		.ascii	"\020\002\027\032\036\031\004\001\002\025\031\027\021"
 704      1E190401 
 704      02151917 
 704      11
 705 22b4 100B1F06 		.ascii	"\020\013\037\006\016\010\033\034\014\033\020\026\024"
 705      0E081B1C 
 705      0C1B1016 
 705      14
 706 22c1 0D081701 		.ascii	"\015\010\027\001\002\034\005\012\005\011\034\011\007"
 706      021C050A 
 706      05091C09 
 706      07
 707 22ce 1E190519 		.ascii	"\036\031\005\031\017\010\033\000\011\031\010\015\000"
 707      0F081B00 
 707      0919080D 
 707      00
 708 22db 03021012 		.ascii	"\003\002\020\022\011\036\013\017\017\027\032\024\024"
 708      091E0B0F 
 708      0F171A14 
 708      14
 709 22e8 1C1B1C01 		.ascii	"\034\033\034\001\012\013\000\006\007\013\000\025\006"
 709      0A0B0006 
 709      070B0015 
 709      06
 710 22f5 1B180E09 		.ascii	"\033\030\016\011\014\034\017\004\034\027\030\027\017"
 710      0C1C0F04 
 710      1C171817 
 710      0F
 711 2302 130B0E10 		.ascii	"\023\013\016\020\014\006\020\023\032\015\022\000\023"
 711      0C061013 
 711      1A0D1200 
 711      13
 712 230f 1C0F0F06 		.ascii	"\034\017\017\006\025\006\005\006\026\013\034\022\011"
 712      15060506 
 712      160B1C12 
 712      09
 713 231c 12150215 		.ascii	"\022\025\002\025\026\007\003\026\017\000\011\016\026"
 713      16070316 
 713      0F00090E 
 713      16
 714 2329 1F040A11 		.ascii	"\037\004\012\021\035\022\013\003\023\013\005\035\022"
 714      1D120B03 
 714      130B051D 
 714      12
 715 2336 0E060015 		.ascii	"\016\006\000\025\025\004\024\025\001\025\034\005\022"
 715      15041415 
 715      01151C05 
 715      12
 716 2343 0D070B16 		.ascii	"\015\007\013\026\014\017\013\020\010\014\030\022\002"
 716      0C0F0B10 
 716      080C1812 
 716      02
 717 2350 06140406 		.ascii	"\006\024\004\006\003\036\006\027\026\035\036\014\030"
 717      031E0617 
 717      161D1E0C 
 717      18
 718 235d 0D131D0F 		.ascii	"\015\023\035\017\012\015\006\035\007\005\022\010\036"
 718      0A0D061D 
 718      07051208 
 718      1E
 719 236a 0F071A12 		.ascii	"\017\007\032\022\037\006\036\020\035\016\010\037\005"
 719      1F061E10 
 719      1D0E081F 
 719      05
 720 2377 09031B1A 		.ascii	"\011\003\033\032\021\017\023\025\024\004\025\020\010"
 720      110F1315 
 720      14041510 
 720      08
 721 2384 161A0914 		.ascii	"\026\032\011\024\036\022\001\007\036\003\004\037\027"
 721      1E120107 
 721      1E03041F 
 721      17
 722 2391 04160D07 		.ascii	"\004\026\015\007\031\027\020\035\035\005\025\023\026"
 722      1917101D 
 722      1D051513 
 722      16
 723 239e 091B0F14 		.ascii	"\011\033\017\024\020\004\011\012\023\007\013\012\036"
 723      1004090A 
 723      13070B0A 
 723      1E
 724 23ab 05121D1A 		.ascii	"\005\022\035\032\010\011\012\003\027\005\001\037\017"
 724      08090A03 
 724      1705011F 
 724      0F
 725 23b8 0F021317 		.ascii	"\017\002\023\027\021\003\010\023\034\006\025\004\027"
 725      11030813 
 725      1C061504 
 725      17
 726 23c5 05031619 		.ascii	"\005\003\026\031\010\015\022\027\007\010\014\011\005"
 726      080D1217 
 726      07080C09 
 726      05
 727 23d2 13030402 		.ascii	"\023\003\004\002\031\010\022\021\007\030\016\015\011"
 727      19081211 
 727      07180E0D 
 727      09
 728 23df 0B1B0F1B 		.ascii	"\013\033\017\033\016\021\007\017\004\023\020\022\031"
 728      0E11070F 
 728      04131012 
 728      19
 729 23ec 111D1505 		.ascii	"\021\035\025\005\020\027\011\001\032\032\031\022\002"
 729      10170901 
 729      1A1A1912 
 729      02
 730 23f9 10091C0A 		.ascii	"\020\011\034\012\017\002\007\004\020\006\022\012\021"
 730      0F020704 
 730      1006120A 
 730      11
 731 2406 0D0F131F 		.ascii	"\015\017\023\037\030\011\012\027\013\002\012\022\000"
 731      18090A17 
 731      0B020A12 
 731      00
 732 2413 1A0A0F0C 		.ascii	"\032\012\017\014\012\002\036\026\020\020\015\025\017"
 732      0A021E16 
 732      10100D15 
 732      0F
 733 2420 11061509 		.ascii	"\021\006\025\011\000\000\034\013\027\027\032\001\006"
 733      00001C0B 
 733      17171A01 
 733      06
 734 242d 0D1B0E13 		.ascii	"\015\033\016\023\014\010\034\030\006\031\000\033\017"
 734      0C081C18 
 734      0619001B 
 734      0F
 735 243a 111B1F1A 		.ascii	"\021\033\037\032\007\006\025\017\036\010\007\002\036"
 735      0706150F 
 735      1E080702 
 735      1E
 736 2447 1F1E161C 		.ascii	"\037\036\026\034\006\003\020\035\013\025\007\027\023"
 736      0603101D 
 736      0B150717 
 736      13
 737 2454 1D121C07 		.ascii	"\035\022\034\007\013\025\003\033\022\014\023\004\017"
 737      0B15031B 
 737      120C1304 
 737      0F
 738 2461 170D181E 		.ascii	"\027\015\030\036\025\025\000\010\036\014\007\037\005"
 738      15150008 
 738      1E0C071F 
 738      05
 739 246e 1D051314 		.ascii	"\035\005\023\024\015\014\023\017\032\023\035\023\021"
 739      0D0C130F 
 739      1A131D13 
 739      11
 740 247b 121A081B 		.ascii	"\022\032\010\033\021\003\011\003\012\037\020\012\015"
 740      11030903 
 740      0A1F100A 
 740      0D
 741 2488 0E000C0B 		.ascii	"\016\000\014\013\014\007\027\024\004\030\014\011\017"
 741      0C071714 
 741      04180C09 
 741      0F
 742 2495 0D1B0A08 		.ascii	"\015\033\012\010\030\023\035\014\002\031\020\035\006"
 742      18131D0C 
 742      0219101D 
 742      06
 743 24a2 0C1B1512 		.ascii	"\014\033\025\022\014\025\023\027\035\013\007\017\012"
 743      0C151317 
 743      1D0B070F 
 743      0A
 744 24af 10070D06 		.ascii	"\020\007\015\006\024\000\011\032\026\006\037\017\032"
 744      1400091A 
 744      16061F0F 
 744      1A
 745 24bc 1514070F 		.ascii	"\025\024\007\017\034\035\013\013\010\004\035\030\005"
 745      1C1D0B0B 
 745      08041D18 
 745      05
 746 24c9 1F07130B 		.ascii	"\037\007\023\013\014\011\032\032\030\031\024\004\037"
 746      0C091A1A 
 746      18191404 
 746      1F
 747 24d6 110C1A07 		.ascii	"\021\014\032\007\020\035\034\013\023\036\021\033\010"
 747      101D1C0B 
 747      131E111B 
 747      08
 748 24e3 0B081718 		.ascii	"\013\010\027\030\010\035\011\022\030\020\036\010\023"
 748      081D0912 
 748      18101E08 
 748      13
 749 24f0 0D11071F 		.ascii	"\015\021\007\037\032\027\012\030\035\022\000\020\034"
 749      1A170A18 
 749      1D120010 
 749      1C
 750 24fd 02031E06 		.ascii	"\002\003\036\006\034\036\003\000\033\017\015\004\022"
 750      1C1E0300 
 750      1B0F0D04 
 750      12
 751 250a 0215141B 		.ascii	"\002\025\024\033\037\027\003\015\003\001\023\020\021"
 751      1F17030D 
 751      03011310 
 751      11
 752 2517 000B0718 		.ascii	"\000\013\007\030\015\006\006\037\002\002\011\032\030"
 752      0D06061F 
 752      0202091A 
 752      18
 753 2524 0B0E1313 		.ascii	"\013\016\023\023\022\007\003\003\001\002\025\024\013"
 753      12070303 
 753      01021514 
 753      0B
 754 2531 030F1718 		.ascii	"\003\017\027\030\012\020\032\030\023\002\003\012\013"
 754      0A101A18 
 754      1302030A 
 754      0B
 755 253e 020C1D0E 		.ascii	"\002\014\035\016\022\024\036\001\027\010\037\002\010"
 755      12141E01 
 755      17081F02 
 755      08
 756 254b 17161B1F 		.ascii	"\027\026\033\037\031\003\017\007\033\012\014\031\036"
 756      19030F07 
 756      1B0A0C19 
 756      1E
 757 2558 000D0302 		.ascii	"\000\015\003\002\026\030\026\006\036\023\022\026\035"
 757      16181606 
 757      1E131216 
 757      1D
 758 2565 160A0202 		.ascii	"\026\012\002\002\027\027\025\017\014\022\003\033\031"
 758      1717150F 
 758      0C12031B 
 758      19
 759 2572 12131B05 		.ascii	"\022\023\033\005\037\033\014\000\023\015\024\020\006"
 759      1F1B0C00 
 759      130D1410 
 759      06
 760 257f 14051B1D 		.ascii	"\024\005\033\035\010\030\034\035\011\004\012\005\023"
 760      08181C1D 
 760      09040A05 
 760      13
 761 258c 17130114 		.ascii	"\027\023\001\024\026\030\030\013\017\030\016\013\037"
 761      1618180B 
 761      0F180E0B 
 761      1F
 762 2599 13131605 		.ascii	"\023\023\026\005\024\032\035\025\017\017\014\004\001"
 762      141A1D15 
 762      0F0F0C04 
 762      01
 763 25a6 150D091E 		.ascii	"\025\015\011\036\030\036\021\014\017\005\000\024\006"
 763      181E110C 
 763      0F050014 
 763      06
 764 25b3 080C010A 		.ascii	"\010\014\001\012\022\030\001\005\030\006\010\017\024"
 764      12180105 
 764      1806080F 
 764      14
 765 25c0 1517150B 		.ascii	"\025\027\025\013\005\020\035\017\021\035\020\026\021"
 765      05101D0F 
 765      111D1016 
 765      11
 766 25cd 09101609 		.ascii	"\011\020\026\011\006\002\034\024\024\015\012\030\011"
 766      06021C14 
 766      140D0A18 
 766      09
 767 25da 0416181D 		.ascii	"\004\026\030\035\021\027\020\024\024\017\022\022\030"
 767      11171014 
 767      140F1212 
 767      18
 768 25e7 19170F1F 		.ascii	"\031\027\017\037\007\000\012\005\007\026\005\012\005"
 768      07000A05 
 768      0716050A 
 768      05
 769 25f4 140D0200 		.ascii	"\024\015\002\000\007\014\007\022\024\005\022\007\003"
 769      070C0712 
 769      14051207 
 769      03
 770 2601 0F110D1E 		.ascii	"\017\021\015\036\020\024\020\037\036\024\032\024\037"
 770      1014101F 
 770      1E141A14 
 770      1F
 771 260e 07021E06 		.ascii	"\007\002\036\006\024\022\015\024\005\010\031\015\035"
 771      14120D14 
 771      0508190D 
 771      1D
 772 261b 16121D0B 		.ascii	"\026\022\035\013\031\006\000\036\026\026\030\006\002"
 772      1906001E 
 772      16161806 
 772      02
 773 2628 1E071003 		.ascii	"\036\007\020\003\023\003\032\037\034\014\032\013\032"
 773      13031A1F 
 773      1C0C1A0B 
 773      1A
 774 2635 160D041C 		.ascii	"\026\015\004\034\034\017\003\035\003\034\000\037\004"
 774      1C0F031D 
 774      031C001F 
 774      04
 775 2642 17071A0F 		.ascii	"\027\007\032\017\035\026\006\006\003\025\014\004\026"
 775      1D160606 
 775      03150C04 
 775      16
 776 264f 01091E19 		.ascii	"\001\011\036\031\010\005\026\031\023\022\036\004\021"
 776      08051619 
 776      13121E04 
 776      11
 777 265c 0419191C 		.ascii	"\004\031\031\034\035\012\005\001\031\020\030\024\036"
 777      1D0A0501 
 777      19101814 
 777      1E
 778 2669 0F0F0000 		.ascii	"\017\017\000\000\035\004\013\024\012\007\004\016\001"
 778      1D040B14 
 778      0A07040E 
 778      01
 779 2676 0F110706 		.ascii	"\017\021\007\006\014\011\020\032\030\022\024\014\002"
 779      0C09101A 
 779      1812140C 
 779      02
 780 2683 0E1C1916 		.ascii	"\016\034\031\026\027\014\017\000\031\037\014\031\001"
 780      170C0F00 
 780      191F0C19 
 780      01
 781 2690 03130E0A 		.ascii	"\003\023\016\012\003\016\032\031\037\017\015\002\030"
 781      030E1A19 
 781      1F0F0D02 
 781      18
 782 269d 13060713 		.ascii	"\023\006\007\023\011\007\016\011\027\011\006\033\030"
 782      09070E09 
 782      1709061B 
 782      18
 783 26aa 11041314 		.ascii	"\021\004\023\024\011\025\002\024\006\010\034\027\000"
 783      09150214 
 783      06081C17 
 783      00
 784 26b7 1C110A19 		.ascii	"\034\021\012\031\007\014\030\000\026\001\014\004\027"
 784      070C1800 
 784      16010C04 
 784      17
 785 26c4 110C0001 		.ascii	"\021\014\000\001\031\026\037\034\013\007\014\022\033"
 785      19161F1C 
 785      0B070C12 
 785      1B
 786 26d1 0816050B 		.ascii	"\010\026\005\013\005\035\012\013\035\025\036\010\017"
 786      051D0A0B 
 786      1D151E08 
 786      0F
 787 26de 1A0D0D0D 		.ascii	"\032\015\015\015\001\016\035\015\011\030\033\034\020"
 787      010E1D0D 
 787      09181B1C 
 787      10
 788 26eb 0A1A091D 		.ascii	"\012\032\011\035\030\015\032\016\032\025\036\007\010"
 788      180D1A0E 
 788      1A151E07 
 788      08
 789 26f8 1C141202 		.ascii	"\034\024\022\002\024\011\015\030\033\012\016\010\020"
 789      14090D18 
 789      1B0A0E08 
 789      10
 790 2705 150A1405 		.ascii	"\025\012\024\005\025\023\013\017\016\003\006"
 790      15130B0F 
 790      0E0306
 791 2710 04100B09 		.ascii	"\004\020\013\011\017\014\023\011\006\011\002\035\020"
 791      0F0C1309 
 791      0609021D 
 791      10
 792 271d 010E0E06 		.ascii	"\001\016\016\006\036\031\012\036\036\037\016\013\010"
 792      1E190A1E 
 792      1E1F0E0B 
 792      08
 793 272a 12120409 		.ascii	"\022\022\004\011\004\030\010\002\001\032\012\030\013"
 793      04180802 
 793      011A0A18 
 793      0B
 794 2737 1D070201 		.ascii	"\035\007\002\001\021\023\035\032\037\032\007\005\002"
 794      11131D1A 
 794      1F1A0705 
 794      02
 795 2744 12091300 		.ascii	"\022\011\023\000\030\004\002\025\032\035\036\000\034"
 795      18040215 
 795      1A1D1E00 
 795      1C
 796 2751 09170919 		.ascii	"\011\027\011\031\035\002\011\002\027\025\010\026\014"
 796      1D020902 
 796      17150816 
 796      0C
 797 275e 051D0D1E 		.ascii	"\005\035\015\036\033\017\026\001\020\000\036\030\025"
 797      1B0F1601 
 797      10001E18 
 797      15
 798 276b 19010C0F 		.ascii	"\031\001\014\017\034\013\010\024\010\025\033\026\023"
 798      1C0B0814 
 798      08151B16 
 798      13
 799 2778 0106050B 		.ascii	"\001\006\005\013\006\027\002\016\004\017\024\005\010"
 799      0617020E 
 799      040F1405 
 799      08
 800 2785 05031414 		.ascii	"\005\003\024\024\036\007\004\001\012\013\005\025\007"
 800      1E070401 
 800      0A0B0515 
 800      07
 801 2792 07001200 		.ascii	"\007\000\022\000\031\037\013\005\033\005\003\005\025"
 801      191F0B05 
 801      1B050305 
 801      15
 802 279f 001E150A 		.ascii	"\000\036\025\012\037\015\004\007\007\026\020\016\007"
 802      1F0D0407 
 802      0716100E 
 802      07
 803 27ac 08021411 		.ascii	"\010\002\024\021\031\032\024\005\033\020\006\016\013"
 803      191A1405 
 803      1B10060E 
 803      0B
 804 27b9 17101518 		.ascii	"\027\020\025\030\031\036\025\016\033\016\007\021\015"
 804      191E150E 
 804      1B0E0711 
 804      0D
 805 27c6 0F0E0411 		.ascii	"\017\016\004\021\012\030\010\034\021\036\007\007\031"
 805      0A18081C 
 805      111E0707 
 805      19
 806 27d3 0F121717 		.ascii	"\017\022\027\027\014\005\026\035\032\001\030\021\021"
 806      0C05161D 
 806      1A011811 
 806      11
 807 27e0 09120D01 		.ascii	"\011\022\015\001\013\030\027\032\016\005\037\003\022"
 807      0B18171A 
 807      0E051F03 
 807      12
 808 27ed 0D03011A 		.ascii	"\015\003\001\032\016\005\034\002\007\016\016\005\010"
 808      0E051C02 
 808      070E0E05 
 808      08
 809 27fa 1F1D131B 		.ascii	"\037\035\023\033\023\022\012\007\002\024\037\012\022"
 809      13120A07 
 809      02141F0A 
 809      12
 810 2807 0D1F0F12 		.ascii	"\015\037\017\022\001\002\022\020\006\006\030\031\003"
 810      01021210 
 810      06061819 
 810      03
 811 2814 020C1912 		.ascii	"\002\014\031\022\007\005\030\000\004\000\026\031\026"
 811      07051800 
 811      04001619 
 811      16
 812 2821 0A13011F 		.ascii	"\012\023\001\037\015\032\013\015\026\035\036\021\024"
 812      0D1A0B0D 
 812      161D1E11 
 812      14
 813 282e 05070101 		.ascii	"\005\007\001\001\017\032\020\032\007\016\012\036\022"
 813      0F1A101A 
 813      070E0A1E 
 813      12
 814 283b 0002160E 		.ascii	"\000\002\026\016\004\000\014\024\037\007\012\017\006"
 814      04000C14 
 814      1F070A0F 
 814      06
 815 2848 1019060F 		.ascii	"\020\031\006\017\015\002\035\002\003\007\024\026\032"
 815      0D021D02 
 815      03071416 
 815      1A
 816 2855 18181508 		.ascii	"\030\030\025\010\020\031\022\007\011\001\011\020\016"
 816      10191207 
 816      09010910 
 816      0E
 817 2862 18130A0D 		.ascii	"\030\023\012\015\023\000\003\004\035\010\020\010\025"
 817      13000304 
 817      1D081008 
 817      15
 818 286f 07000712 		.ascii	"\007\000\007\022\024\037\026\007\035\031\027\035\026"
 818      141F1607 
 818      1D19171D 
 818      16
 819 287c 1F021909 		.ascii	"\037\002\031\011\000\031\014\007\033\011\005\015\033"
 819      00190C07 
 819      1B09050D 
 819      1B
 820 2889 0B041A11 		.ascii	"\013\004\032\021\000\036\032\011\031\005\010\023\014"
 820      001E1A09 
 820      19050813 
 820      0C
 821 2896 151A181F 		.ascii	"\025\032\030\037\012\004\027\020\035\023\006\016\013"
 821      0A041710 
 821      1D13060E 
 821      0B
 822 28a3 06130C09 		.ascii	"\006\023\014\011\035\005\001\017\037\032\037\001\023"
 822      1D05010F 
 822      1F1A1F01 
 822      13
 823 28b0 02070F0C 		.ascii	"\002\007\017\014\020\024\002\020\004\016\033\007\016"
 823      10140210 
 823      040E1B07 
 823      0E
 824 28bd 04070101 		.ascii	"\004\007\001\001\037\015\003\012\037\012\004\005\012"
 824      1F0D030A 
 824      1F0A0405 
 824      0A
 825 28ca 02130B01 		.ascii	"\002\023\013\001\031\023\030\027\027\006\015\031\003"
 825      19131817 
 825      17060D19 
 825      03
 826 28d7 17151109 		.ascii	"\027\025\021\011\027\024\013\037\035\026\025\021\031"
 826      17140B1F 
 826      1D161511 
 826      19
 827 28e4 1E141B11 		.ascii	"\036\024\033\021\005\012\034\002\024\012\021\037\037"
 827      050A1C02 
 827      140A111F 
 827      1F
 828 28f1 0C02170D 		.ascii	"\014\002\027\015\022\012\001\013\031\025\003\005\034"
 828      120A010B 
 828      19150305 
 828      1C
 829 28fe 01031F0C 		.ascii	"\001\003\037\014\031\026\027\010\003\006\013\025\013"
 829      19161708 
 829      03060B15 
 829      0B
 830 290b 03131013 		.ascii	"\003\023\020\023\026\031\010\016\011\003\013\012\026"
 830      1619080E 
 830      09030B0A 
 830      16
 831 2918 01141C0C 		.ascii	"\001\024\034\014\030\003\002\005\022\021\015\007\004"
 831      18030205 
 831      12110D07 
 831      04
 832 2925 190A0F08 		.ascii	"\031\012\017\010\014\014\022\035\026\020\002\021\022"
 832      0C0C121D 
 832      16100211 
 832      12
 833 2932 1F19081A 		.ascii	"\037\031\010\032\030\011\027\030\022\012\010\010\023"
 833      18091718 
 833      120A0808 
 833      13
 834 293f 1F1F1713 		.ascii	"\037\037\027\023\013\004\031\001\024\007\026\017\034"
 834      0B041901 
 834      1407160F 
 834      1C
 835 294c 1B1B0517 		.ascii	"\033\033\005\027\004\013\035\005\014\030\003\012\030"
 835      040B1D05 
 835      0C18030A 
 835      18
 836 2959 080D1E1D 		.ascii	"\010\015\036\035\006\013\030\020\004\032\026\022\025"
 836      060B1810 
 836      041A1612 
 836      15
 837 2966 0A18060C 		.ascii	"\012\030\006\014\010\000\010\021\023\015\020\033\013"
 837      08000811 
 837      130D101B 
 837      0B
 838 2973 041B1B16 		.ascii	"\004\033\033\026\002\004\011\036\006\010\031\031\032"
 838      0204091E 
 838      06081919 
 838      1A
 839 2980 171D0203 		.ascii	"\027\035\002\003\037\035\020\032\015\015\025\013\002"
 839      1F1D101A 
 839      0D0D150B 
 839      02
 840 298d 00061313 		.ascii	"\000\006\023\023\032\013\037\034\024\005\021\017\032"
 840      1A0B1F1C 
 840      1405110F 
 840      1A
 841 299a 150A100A 		.ascii	"\025\012\020\012\033\035\035\000\003\037\030\017\024"
 841      1B1D1D00 
 841      031F180F 
 841      14
 842 29a7 0B15131A 		.ascii	"\013\025\023\032\005\002\023\014\015\015\021\033\017"
 842      0502130C 
 842      0D0D111B 
 842      0F
 843 29b4 0512090A 		.ascii	"\005\022\011\012\025\034\024\022\024\037\026\000\034"
 843      151C1412 
 843      141F1600 
 843      1C
 844 29c1 0E021F00 		.ascii	"\016\002\037\000\013\000\002\014\010\031\004\002\030"
 844      0B00020C 
 844      08190402 
 844      18
 845 29ce 0E031508 		.ascii	"\016\003\025\010\007\026\024\027\036\031\014\021\021"
 845      07161417 
 845      1E190C11 
 845      11
 846 29db 0F130715 		.ascii	"\017\023\007\025\022\021\004\015\027\036\025\006\032"
 846      1211040D 
 846      171E1506 
 846      1A
 847 29e8 1D1F0A10 		.ascii	"\035\037\012\020\013\035\003\013\025\015\004\000\007"
 847      0B1D030B 
 847      150D0400 
 847      07
 848 29f5 120B1505 		.ascii	"\022\013\025\005\004\012\023\004\000\015\023\034\005"
 848      040A1304 
 848      000D131C 
 848      05
 849 2a02 121B0E1C 		.ascii	"\022\033\016\034\016\002\021\036\036\017\012\014\025"
 849      0E02111E 
 849      1E0F0A0C 
 849      15
 850 2a0f 10140D03 		.ascii	"\020\024\015\003\022\004\023\005\006\013\005\020\026"
 850      12041305 
 850      060B0510 
 850      16
 851 2a1c 1E0A0403 		.ascii	"\036\012\004\003\036\017\030\015\005\031\035\037\021"
 851      1E0F180D 
 851      05191D1F 
 851      11
 852 2a29 1A0F1F00 		.ascii	"\032\017\037\000\007\004\010\016\016\025\016\015\004"
 852      0704080E 
 852      0E150E0D 
 852      04
 853 2a36 1D03121F 		.ascii	"\035\003\022\037\007\012\010\030\022\011\001\016\007"
 853      070A0818 
 853      1209010E 
 853      07
 854 2a43 07190207 		.ascii	"\007\031\002\007\037\034\031\015\036\015\024\033\010"
 854      1F1C190D 
 854      1E0D141B 
 854      08
 855 2a50 1607010F 		.ascii	"\026\007\001\017\015\024\024\000\020\020\023\016\007"
 855      0D141400 
 855      1010130E 
 855      07
 856 2a5d 02111D0B 		.ascii	"\002\021\035\013\036\036\024\003\030\036\005\012\037"
 856      1E1E1403 
 856      181E050A 
 856      1F
 857 2a6a 17111D0F 		.ascii	"\027\021\035\017\020\002\003\021\001\024\023\035\036"
 857      10020311 
 857      0114131D 
 857      1E
 858 2a77 1B10181C 		.ascii	"\033\020\030\034\000\030\005\026\026\000\007\006\011"
 858      00180516 
 858      16000706 
 858      09
 859 2a84 04131E10 		.ascii	"\004\023\036\020\000\021\016\005\034\011\015\036\024"
 859      00110E05 
 859      1C090D1E 
 859      14
 860 2a91 14061D0E 		.ascii	"\024\006\035\016\033\003\031\014\005\016\017\021\035"
 860      1B03190C 
 860      050E0F11 
 860      1D
 861 2a9e 03170707 		.ascii	"\003\027\007\007\000\026\027\024\035\001\030\011\014"
 861      00161714 
 861      1D011809 
 861      0C
 862 2aab 1B16181C 		.ascii	"\033\026\030\034\017\016\031\024\006\007\005\022\024"
 862      0F0E1914 
 862      06070512 
 862      14
 863 2ab8 1F171016 		.ascii	"\037\027\020\026\000\020\037\007\026\014\000\003\020"
 863      00101F07 
 863      160C0003 
 863      10
 864 2ac5 1619000A 		.ascii	"\026\031\000\012\002\021\023\005\007\017\024\022\026"
 864      02111305 
 864      070F1412 
 864      16
 865 2ad2 1B07041D 		.ascii	"\033\007\004\035\035\037\010\011\031\011\022\037\015"
 865      1D1F0809 
 865      1909121F 
 865      0D
 866 2adf 0304121D 		.ascii	"\003\004\022\035\013\030\006\013\017\021\005\000\026"
 866      0B18060B 
 866      0F110500 
 866      16
 867 2aec 1E050B17 		.ascii	"\036\005\013\027\027\030\015\016\012\034\000\014\024"
 867      17180D0E 
 867      0A1C000C 
 867      14
 868 2af9 0D03080A 		.ascii	"\015\003\010\012\013\016\000\000\025\036\033\025\002"
 868      0B0E0000 
 868      151E1B15 
 868      02
 869 2b06 15110D1D 		.ascii	"\025\021\015\035\015\017\037\002\032\002\023\002\016"
 869      0D0F1F02 
 869      1A021302 
 869      0E
 870 2b13 080F0D00 		.ascii	"\010\017\015\000\025\036\022\013\006\030\021\031\027"
 870      151E120B 
 870      06181119 
 870      17
 871 2b20 0C111411 		.ascii	"\014\021\024\021\030\015\027\016\002\007\004\006\004"
 871      180D170E 
 871      02070406 
 871      04
 872 2b2d 18171C0F 		.ascii	"\030\027\034\017\032\005\031\032\030\014\035\013\032"
 872      1A05191A 
 872      180C1D0B 
 872      1A
 873 2b3a 1B15130C 		.ascii	"\033\025\023\014\037\035\016\024\024\020\006\017\020"
 873      1F1D0E14 
 873      1410060F 
 873      10
 874 2b47 1A03180A 		.ascii	"\032\003\030\012\013\001\012\037\036\026\023\001\007"
 874      0B010A1F 
 874      1E161301 
 874      07
 875 2b54 161C0B1C 		.ascii	"\026\034\013\034\016\017\022\032\014\014\003\013\023"
 875      0E0F121A 
 875      0C0C030B 
 875      13
 876 2b61 10090110 		.ascii	"\020\011\001\020\026\037\015\033\003\033\007\034\022"
 876      161F0D1B 
 876      031B071C 
 876      12
 877 2b6e 101E0405 		.ascii	"\020\036\004\005\006\016\032\000\017\031\006\010\031"
 877      060E1A00 
 877      0F190608 
 877      19
 878 2b7b 05090B0B 		.ascii	"\005\011\013\013\014\007\021\024\016\021\017\001\001"
 878      0C071114 
 878      0E110F01 
 878      01
 879 2b88 171B1513 		.ascii	"\027\033\025\023\006\032\006\025\021\020\012\000\001"
 879      061A0615 
 879      11100A00 
 879      01
 880 2b95 0F0D100D 		.ascii	"\017\015\020\015\037\007\005\011\021\020\001\005\002"
 880      1F070509 
 880      11100105 
 880      02
 881 2ba2 01051400 		.ascii	"\001\005\024\000\003\012\014\016\030\016\025\003\033"
 881      030A0C0E 
 881      180E1503 
 881      1B
 882 2baf 170E121E 		.ascii	"\027\016\022\036\010\002\014\034\005\006\015\037\032"
 882      08020C1C 
 882      05060D1F 
 882      1A
 883 2bbc 1C0B0915 		.ascii	"\034\013\011\025\006\023\000\001\014\007\015\020\005"
 883      06130001 
 883      0C070D10 
 883      05
 884 2bc9 0F030703 		.ascii	"\017\003\007\003\005\017\034\035\002\024\001\011\002"
 884      050F1C1D 
 884      02140109 
 884      02
 885 2bd6 0D071D0A 		.ascii	"\015\007\035\012\016\027\033\015\020\010\016\021\013"
 885      0E171B0D 
 885      10080E11 
 885      0B
 886 2be3 18151B09 		.ascii	"\030\025\033\011\036\032\037\015\025\006\022\023\010"
 886      1E1A1F0D 
 886      15061213 
 886      08
 887 2bf0 1F020205 		.ascii	"\037\002\002\005\000\020\017\006\030\026\020\017\006"
 887      00100F06 
 887      1816100F 
 887      06
 888 2bfd 13110503 		.ascii	"\023\021\005\003\033\027\023\012\003\020\027\025\021"
 888      1B17130A 
 888      03101715 
 888      11
 889 2c0a 010C0F06 		.ascii	"\001\014\017\006\016\026\030\022\026\006\022\035\011"
 889      0E161812 
 889      1606121D 
 889      09
 890 2c17 12150908 		.ascii	"\022\025\011\010\006\011\025\034\007\013\024\037\034"
 890      0609151C 
 890      070B141F 
 890      1C
 891 2c24 150C091A 		.ascii	"\025\014\011\032\022\036\016\022\037\006\023\016\036"
 891      121E0E12 
 891      1F06130E 
 891      1E
 892 2c31 1F061903 		.ascii	"\037\006\031\003\037\021\023\020\015\024\032\025\027"
 892      1F111310 
 892      0D141A15 
 892      17
 893 2c3e 190B1805 		.ascii	"\031\013\030\005\034\027\031\017\001\020\007\015\007"
 893      1C17190F 
 893      0110070D 
 893      07
 894 2c4b 041F1218 		.ascii	"\004\037\022\030\037\021\012\007\027\017\023\012\010"
 894      1F110A07 
 894      170F130A 
 894      08
 895 2c58 010D1119 		.ascii	"\001\015\021\031\026\012\001\033\003\025\033\025\025"
 895      160A011B 
 895      03151B15 
 895      15
 896 2c65 14061700 		.ascii	"\024\006\027\000\002\033\013\033\021\006\026\017\031"
 896      021B0B1B 
 896      1106160F 
 896      19
 897 2c72 0003121F 		.ascii	"\000\003\022\037\037\020\030\013\023\000\015\026\013"
 897      1F10180B 
 897      13000D16 
 897      0B
 898 2c7f 17100417 		.ascii	"\027\020\004\027\033\024\034\026\020\010\006\007\026"
 898      1B141C16 
 898      10080607 
 898      16
 899 2c8c 191C071E 		.ascii	"\031\034\007\036\036\024\037\013\007\025\030\023\025"
 899      1E141F0B 
 899      07151813 
 899      15
 900 2c99 12060C0E 		.ascii	"\022\006\014\016\036\004\027\007\036\003\012\027\027"
 900      1E041707 
 900      1E030A17 
 900      17
 901 2ca6 0C111B17 		.ascii	"\014\021\033\027\021\032\005\000\037\006\003\017\027"
 901      111A0500 
 901      1F06030F 
 901      17
 902 2cb3 1F1E0D16 		.ascii	"\037\036\015\026\032\011\006\011\031\017\005\004\036"
 902      1A090609 
 902      190F0504 
 902      1E
 903 2cc0 1C130E13 		.ascii	"\034\023\016\023\012\025\032\025\036\022\007\000\024"
 903      0A151A15 
 903      1E120700 
 903      14
 904 2ccd 120C0E1C 		.ascii	"\022\014\016\034\035\033\023\017\006\025\031\025\010"
 904      1D1B130F 
 904      06151915 
 904      08
 905 2cda 14120A18 		.ascii	"\024\022\012\030\025\022\035\030\003\022\001\012\014"
 905      15121D18 
 905      0312010A 
 905      0C
 906 2ce7 0417141C 		.ascii	"\004\027\024\034\034\014\014\012\001\015\035\000\001"
 906      1C0C0C0A 
 906      010D1D00 
 906      01
 907 2cf4 041E1219 		.ascii	"\004\036\022\031\002\026\020\025\003\015\024\010\011"
 907      02161015 
 907      030D1408 
 907      09
 908 2d01 100B0C1C 		.ascii	"\020\013\014\034\012\000\031\013\002\014\036\024\024"
 908      0A00190B 
 908      020C1E14 
 908      14
 909 2d0e 08140315 		.ascii	"\010\024\003\025\007\012\036\002\023\030\025\016\031"
 909      070A1E02 
 909      1318150E 
 909      19
 910 2d1b 16160309 		.ascii	"\026\026\003\011\020\015\032\032\005\004\025\033\011"
 910      100D1A1A 
 910      0504151B 
 910      09
 911 2d28 051B061F 		.ascii	"\005\033\006\037\021\033\035\037\011\010\016\021\030"
 911      111B1D1F 
 911      09080E11 
 911      18
 912 2d35 0D0E1E04 		.ascii	"\015\016\036\004\035\022\012\017\001\035\000\011\011"
 912      1D120A0F 
 912      011D0009 
 912      09
 913 2d42 150B1218 		.ascii	"\025\013\022\030\014\025\024\015\010\007\011\030\034"
 913      0C15140D 
 913      08070918 
 913      1C
 914 2d4f 15160503 		.ascii	"\025\026\005\003\035\015\010\017\030\024\024\035\005"
 914      1D0D080F 
 914      1814141D 
 914      05
 915 2d5c 0E111F1F 		.ascii	"\016\021\037\037\010\027\023\002\021\020\023\023\030"
 915      08171302 
 915      11101313 
 915      18
 916 2d69 161C1002 		.ascii	"\026\034\020\002\027\031\027\003\027\001\003\014\004"
 916      17191703 
 916      1701030C 
 916      04
 917 2d76 02140801 		.ascii	"\002\024\010\001\014\030\030\016\031\017\027\016\007"
 917      0C18180E 
 917      190F170E 
 917      07
 918 2d83 03081509 		.ascii	"\003\010\025\011\030\017\012\037\010\004\036\021\002"
 918      180F0A1F 
 918      08041E11 
 918      02
 919 2d90 00090A19 		.ascii	"\000\011\012\031\031\031\015\030\003\021\022\014\016"
 919      19190D18 
 919      0311120C 
 919      0E
 920 2d9d 17001014 		.ascii	"\027\000\020\024\002\020\001\027\026\013\006\006\003"
 920      02100117 
 920      160B0606 
 920      03
 921 2daa 06101C0A 		.ascii	"\006\020\034\012\023\037\023\020\001\026\020\023\007"
 921      131F1310 
 921      01161013 
 921      07
 922 2db7 180B1213 		.ascii	"\030\013\022\023\007\010\011\034\017\037\020\030\010"
 922      0708091C 
 922      0F1F1018 
 922      08
 923 2dc4 1801081A 		.ascii	"\030\001\010\032\024\013\012\012\032\032\024\026\035"
 923      140B0A0A 
 923      1A1A1416 
 923      1D
 924 2dd1 080A111D 		.ascii	"\010\012\021\035\014\015\021\010\003\006\013\002\027"
 924      0C0D1108 
 924      03060B02 
 924      17
 925 2dde 03160F0B 		.ascii	"\003\026\017\013\010\030\021\022\012\034\032\036\010"
 925      08181112 
 925      0A1C1A1E 
 925      08
 926 2deb 09180F00 		.ascii	"\011\030\017\000\014\020\015\026\004\021\015\025\015"
 926      0C100D16 
 926      04110D15 
 926      0D
 927 2df8 03130118 		.ascii	"\003\023\001\030\014\002\033\005\007\001\030\025\024"
 927      0C021B05 
 927      07011815 
 927      14
 928 2e05 081F1503 		.ascii	"\010\037\025\003\005\014\036\015\005\020\035\002\020"
 928      050C1E0D 
 928      05101D02 
 928      10
 929 2e12 0E071A05 		.ascii	"\016\007\032\005\006\000\002\015\011\027\011\001\016"
 929      0600020D 
 929      09170901 
 929      0E
 930 2e1f 1819031C 		.ascii	"\030\031\003\034\001\032\035\016\005\016\027\034\004"
 930      011A1D0E 
 930      050E171C 
 930      04
 931 2e2c 0E1D070E 		.ascii	"\016\035\007\016\024\021\010\027\035\027\026\030\004"
 931      14110817 
 931      1D171618 
 931      04
 932 2e39 1D190200 		.ascii	"\035\031\002\000\015\035\014\015\017\036\006\035\006"
 932      0D1D0C0D 
 932      0F1E061D 
 932      06
 933 2e46 001E1108 		.ascii	"\000\036\021\010\031\025\004\006\026\016\026\021\032"
 933      19150406 
 933      160E1611 
 933      1A
 934 2e53 080F1F07 		.ascii	"\010\017\037\007\003\033\015\023\011\032\015\027\007"
 934      031B0D13 
 934      091A0D17 
 934      07
 935 2e60 09020617 		.ascii	"\011\002\006\027\030\004\001\026\021\027\023\017\034"
 935      18040116 
 935      1117130F 
 935      1C
 936 2e6d 021F041E 		.ascii	"\002\037\004\036\030\000\036\032\000\033\002\021\017"
 936      18001E1A 
 936      001B0211 
 936      0F
 937 2e7a 0C0E1E07 		.ascii	"\014\016\036\007\013\021\016\023\000\037\036\004\026"
 937      0B110E13 
 937      001F1E04 
 937      16
 938 2e87 02150209 		.ascii	"\002\025\002\011\011\024\031\024\032\004\012\034\004"
 938      09141914 
 938      1A040A1C 
 938      04
 939 2e94 1716000A 		.ascii	"\027\026\000\012\000\014\007\007\015\023\030\021\014"
 939      000C0707 
 939      0D131811 
 939      0C
 940 2ea1 121F041B 		.ascii	"\022\037\004\033\030\031\007\027\002\010\002\015\013"
 940      18190717 
 940      0208020D 
 940      0B
 941 2eae 110B140B 		.ascii	"\021\013\024\013\033\031\021\036\020\031\022\005\004"
 941      1B19111E 
 941      10191205 
 941      04
 942 2ebb 1007120A 		.ascii	"\020\007\022\012\002\031\031\015\012\002\020\034\026"
 942      0219190D 
 942      0A02101C 
 942      16
 943 2ec8 17151A14 		.ascii	"\027\025\032\024\024\020\036\000\005\013\021\006\036"
 943      14101E00 
 943      050B1106 
 943      1E
 944 2ed5 101E0302 		.ascii	"\020\036\003\002\030\036\012\006\035\012\032"
 944      181E0A06 
 944      1D0A1A
 945 2ee0 05120B15 		.ascii	"\005\022\013\025\001\023\015\034\012\032\022\000\034"
 945      01130D1C 
 945      0A1A1200 
 945      1C
 946 2eed 031E1A12 		.ascii	"\003\036\032\022\011\005\006\026\011\023\010\020\034"
 946      09050616 
 946      09130810 
 946      1C
 947 2efa 13071B17 		.ascii	"\023\007\033\027\027\037\027\024\035\037\004\036\037"
 947      171F1714 
 947      1D1F041E 
 947      1F
 948 2f07 190E121B 		.ascii	"\031\016\022\033\014\021\030\002\033\037\033\026\024"
 948      0C111802 
 948      1B1F1B16 
 948      14
 949 2f14 0105111E 		.ascii	"\001\005\021\036\027\012\015\016\034\004\004\032\027"
 949      170A0D0E 
 949      1C04041A 
 949      17
 950 2f21 160A0308 		.ascii	"\026\012\003\010\032\023\002\016\033\006\035\023\022"
 950      1A13020E 
 950      1B061D13 
 950      12
 951 2f2e 19090004 		.ascii	"\031\011\000\004\003\034\022\037\032\010\031\001\006"
 951      031C121F 
 951      1A081901 
 951      06
 952 2f3b 1A1E1B03 		.ascii	"\032\036\033\003\006\011\036\037\002\036\000\003\016"
 952      06091E1F 
 952      021E0003 
 952      0E
 953 2f48 01020C04 		.ascii	"\001\002\014\004\007\037\012\023\036\030\034\021\005"
 953      071F0A13 
 953      1E181C11 
 953      05
 954 2f55 18080A05 		.ascii	"\030\010\012\005\020\020\011\032\003\006\010\010\007"
 954      1010091A 
 954      03060808 
 954      07
 955 2f62 18081305 		.ascii	"\030\010\023\005\004\034\033\021\006\025\001\004\013"
 955      041C1B11 
 955      06150104 
 955      0B
 956 2f6f 1006021C 		.ascii	"\020\006\002\034\001\002\031\001\010\035\024\006\005"
 956      01021901 
 956      081D1406 
 956      05
 957 2f7c 190F0F0C 		.ascii	"\031\017\017\014\004\032\017\003\033\014\037\031\011"
 957      041A0F03 
 957      1B0C1F19 
 957      09
 958 2f89 0A120E0F 		.ascii	"\012\022\016\017\030\026\010\013\035\025\037\027\014"
 958      1816080B 
 958      1D151F17 
 958      0C
 959 2f96 1B17081B 		.ascii	"\033\027\010\033\035\007\006\004\007\011\026\023\004"
 959      1D070604 
 959      07091613 
 959      04
 960 2fa3 001F0E05 		.ascii	"\000\037\016\005\010\015\034\025\030\002\022\000\016"
 960      080D1C15 
 960      18021200 
 960      0E
 961 2fb0 1504160F 		.ascii	"\025\004\026\017\030\003\015\014\016\002\027\030\000"
 961      18030D0C 
 961      0E021718 
 961      00
 962 2fbd 05191A19 		.ascii	"\005\031\032\031\013\025\004\027\002\032\003\013\015"
 962      0B150417 
 962      021A030B 
 962      0D
 963 2fca 1A011111 		.ascii	"\032\001\021\021\005\005\031\017\030\021\002\012\006"
 963      0505190F 
 963      1811020A 
 963      06
 964 2fd7 120B0109 		.ascii	"\022\013\001\011\027\010\027\025\006\034\017\007\001"
 964      17081715 
 964      061C0F07 
 964      01
 965 2fe4 0112171F 		.ascii	"\001\022\027\037\001\026\002\032\022\031\006\017\010"
 965      0116021A 
 965      1219060F 
 965      08
 966 2ff1 1F071519 		.ascii	"\037\007\025\031\015\013\016\022\020\035\000\014\023"
 966      0D0B0E12 
 966      101D000C 
 966      13
 967 2ffe 1F1A071B 		.ascii	"\037\032\007\033\024\003\030\003\013\014\016\016\015"
 967      14031803 
 967      0B0C0E0E 
 967      0D
 968 300b 07090E06 		.ascii	"\007\011\016\006\027\006\036\017\014\025\022\004\003"
 968      17061E0F 
 968      0C151204 
 968      03
 969 3018 03070913 		.ascii	"\003\007\011\023\033\005\003\016\034\003\001\017\004"
 969      1B05030E 
 969      1C03010F 
 969      04
 970 3025 1C0A1B04 		.ascii	"\034\012\033\004\032\020\011\021\020\014\010\037\002"
 970      1A100911 
 970      100C081F 
 970      02
 971 3032 01151D0C 		.ascii	"\001\025\035\014\000\016\030\010\037\022\024\026\010"
 971      000E1808 
 971      1F121416 
 971      08
 972 303f 01090C0A 		.ascii	"\001\011\014\012\015\023\025\017\022\033\035\035\013"
 972      0D13150F 
 972      121B1D1D 
 972      0B
 973 304c 060D1817 		.ascii	"\006\015\030\027\021\013\025\005\015\035\037\032\012"
 973      110B1505 
 973      0D1D1F1A 
 973      0A
 974 3059 190D1B05 		.ascii	"\031\015\033\005\006\017\021\007\022\023\031\000\030"
 974      060F1107 
 974      12131900 
 974      18
 975 3066 1E0E0210 		.ascii	"\036\016\002\020\023\015\034\037\034\036\033\026\021"
 975      130D1C1F 
 975      1C1E1B16 
 975      11
 976 3073 1B06170A 		.ascii	"\033\006\027\012\004\021\003\013\035\027\015\030\014"
 976      0411030B 
 976      1D170D18 
 976      0C
 977 3080 081D0502 		.ascii	"\010\035\005\002\020\010\004\017\023\033\017\031\016"
 977      1008040F 
 977      131B0F19 
 977      0E
 978 308d 140E0B0E 		.ascii	"\024\016\013\016\002\033\014\015\015\002\005\033\020"
 978      021B0C0D 
 978      0D02051B 
 978      10
 979 309a 041B151B 		.ascii	"\004\033\025\033\025\001\002\025\030\036\036\020\004"
 979      15010215 
 979      181E1E10 
 979      04
 980 30a7 151B1E07 		.ascii	"\025\033\036\007\035\031\021\011\017\013\004\030\006"
 980      1D191109 
 980      0F0B0418 
 980      06
 981 30b4 1D12010F 		.ascii	"\035\022\001\017\007\017\014\022\025\026\000\023\037"
 981      070F0C12 
 981      15160013 
 981      1F
 982 30c1 02090719 		.ascii	"\002\011\007\031\037\037\001\037\017\015\002\010\025"
 982      1F1F011F 
 982      0F0D0208 
 982      15
 983 30ce 19111D15 		.ascii	"\031\021\035\025\013\026\011\016\015\034\037\035\020"
 983      0B16090E 
 983      0D1C1F1D 
 983      10
 984 30db 07060808 		.ascii	"\007\006\010\010\035\021\015\030\037\007\037\002\027"
 984      1D110D18 
 984      1F071F02 
 984      17
 985 30e8 14181A1D 		.ascii	"\024\030\032\035\010\021\027\026\035\001\004\036\015"
 985      08111716 
 985      1D01041E 
 985      0D
 986 30f5 09040911 		.ascii	"\011\004\011\021\033\011\025\032\037\027\022\032\021"
 986      1B09151A 
 986      1F17121A 
 986      11
 987 3102 1B0A141D 		.ascii	"\033\012\024\035\016\012\010\014\006\012\003\005\025"
 987      0E0A080C 
 987      060A0305 
 987      15
 988 310f 15000408 		.ascii	"\025\000\004\010\017\034\003\001\023\004\030\011\035"
 988      0F1C0301 
 988      13041809 
 988      1D
 989 311c 05180C09 		.ascii	"\005\030\014\011\035\013\031\036\015\010\013\037\032"
 989      1D0B191E 
 989      0D080B1F 
 989      1A
 990 3129 1D090419 		.ascii	"\035\011\004\031\024\010\012\026\037\014\035\031\013"
 990      14080A16 
 990      1F0C1D19 
 990      0B
 991 3136 011A170F 		.ascii	"\001\032\027\017\036\015\014\024\030\016\016\010\022"
 991      1E0D0C14 
 991      180E0E08 
 991      12
 992 3143 151C0417 		.ascii	"\025\034\004\027\002\022\017\013\011\013\006\015\017"
 992      02120F0B 
 992      090B060D 
 992      0F
 993 3150 18141311 		.ascii	"\030\024\023\021\032\000\003\011\023\013\021\005\035"
 993      1A000309 
 993      130B1105 
 993      1D
 994 315d 0D021318 		.ascii	"\015\002\023\030\006\017\023\014\006\000\030\033\034"
 994      060F130C 
 994      0600181B 
 994      1C
 995 316a 05181619 		.ascii	"\005\030\026\031\021\005\005\023\026\010\031\017\007"
 995      11050513 
 995      1608190F 
 995      07
 996 3177 14020714 		.ascii	"\024\002\007\024\016\034\012\002\036\022\005\002\032"
 996      0E1C0A02 
 996      1E120502 
 996      1A
 997 3184 0B06110A 		.ascii	"\013\006\021\012\036\024\014\017\025\012\011\023\026"
 997      1E140C0F 
 997      150A0913 
 997      16
 998 3191 0F180817 		.ascii	"\017\030\010\027\021\006\000\030\005\020\023\036\022"
 998      11060018 
 998      0510131E 
 998      12
 999 319e 141F1308 		.ascii	"\024\037\023\010\036\007\007\002\016\014\020\004\035"
 999      1E070702 
 999      0E0C1004 
 999      1D
 1000 31ab 190E1509 		.ascii	"\031\016\025\011\027\014\004\004\031\034\006\035\016"
 1000      170C0404 
 1000      191C061D 
 1000      0E
 1001 31b8 0D0D051F 		.ascii	"\015\015\005\037\030\013\030\017\026\005\012\021\015"
 1001      180B180F 
 1001      16050A11 
 1001      0D
 1002 31c5 1F0E0E11 		.ascii	"\037\016\016\021\011\005\034\016\023\024\027\002\030"
 1002      09051C0E 
 1002      13141702 
 1002      18
 1003 31d2 15110F18 		.ascii	"\025\021\017\030\014\032\036\010\015\006\025\033\012"
 1003      0C1A1E08 
 1003      0D06151B 
 1003      0A
 1004 31df 1B1B101C 		.ascii	"\033\033\020\034\011\015\005\006\012\033\037\005\026"
 1004      090D0506 
 1004      0A1B1F05 
 1004      16
 1005 31ec 1F12041F 		.ascii	"\037\022\004\037\033\032\020\011\036\006\034\013\035"
 1005      1B1A1009 
 1005      1E061C0B 
 1005      1D
 1006 31f9 031A1B11 		.ascii	"\003\032\033\021\004\013\016\011\022\037\011\035\037"
 1006      040B0E09 
 1006      121F091D 
 1006      1F
 1007 3206 04031C0E 		.ascii	"\004\003\034\016\036\007\023\024\013\034\031\004\017"
 1007      1E071314 
 1007      0B1C1904 
 1007      0F
 1008 3213 090A0104 		.ascii	"\011\012\001\004\014\012\031\017\011\025\034\022\014"
 1008      0C0A190F 
 1008      09151C12 
 1008      0C
 1009 3220 0B170D0C 		.ascii	"\013\027\015\014\033\027\004\016\003\034\037\004\012"
 1009      1B17040E 
 1009      031C1F04 
 1009      0A
 1010 322d 1006081B 		.ascii	"\020\006\010\033\036\023\003\033\001\017\027\024\022"
 1010      1E13031B 
 1010      010F1714 
 1010      12
 1011 323a 07010A12 		.ascii	"\007\001\012\022\007\015\035\030\024\014\017\037\022"
 1011      070D1D18 
 1011      140C0F1F 
 1011      12
 1012 3247 1213191E 		.ascii	"\022\023\031\036\010\014\002\024\005\034\037\023\022"
 1012      080C0214 
 1012      051C1F13 
 1012      12
 1013 3254 0C130B1A 		.ascii	"\014\023\013\032\020\017\032\001\026\001\000\023\014"
 1013      100F1A01 
 1013      16010013 
 1013      0C
 1014 3261 001C1E19 		.ascii	"\000\034\036\031\002\014\027\037\031\030\010\023\012"
 1014      020C171F 
 1014      19180813 
 1014      0A
 1015 326e 1E0D1319 		.ascii	"\036\015\023\031\010\001\027\020\004\024\015\011\016"
 1015      08011710 
 1015      04140D09 
 1015      0E
 1016 327b 120B0100 		.ascii	"\022\013\001\000\026\005\015\007\030\022\013\020\015"
 1016      16050D07 
 1016      18120B10 
 1016      0D
 1017 3288 0A14011D 		.ascii	"\012\024\001\035\016\037\033\032\006\005\021\014\032"
 1017      0E1F1B1A 
 1017      0605110C 
 1017      1A
 1018 3295 07020F11 		.ascii	"\007\002\017\021\027\001\003\005\001\012\010\026\027"
 1018      17010305 
 1018      010A0816 
 1018      17
 1019 32a2 0C100713 		.ascii	"\014\020\007\023\023\003\012\032\031\012\010\016\024"
 1019      13030A1A 
 1019      190A080E 
 1019      14
 1020 32af 110E1E18 		.ascii	"\021\016\036\030\027\001\025\024\032\023\010\010\033"
 1020      17011514 
 1020      1A130808 
 1020      1B
 1021 32bc 1F0C141E 		.ascii	"\037\014\024\036\012\023\030\024\001\005\001\011\023"
 1021      0A131814 
 1021      01050109 
 1021      13
 1022 32c9 1F12111B 		.ascii	"\037\022\021\033\026\017\005\033\032\036\036\016\025"
 1022      160F051B 
 1022      1A1E1E0E 
 1022      15
 1023 32d6 0C0B1314 		.ascii	"\014\013\023\024\016\003\033\037\022\030\026\023\000"
 1023      0E031B1F 
 1023      12181613 
 1023      00
 1024 32e3 1E050B03 		.ascii	"\036\005\013\003\013\000\010\016\025\021\004\031\001"
 1024      0B00080E 
 1024      15110419 
 1024      01
 1025 32f0 01060C1C 		.ascii	"\001\006\014\034\012\026\010\003\024\032\022\035\017"
 1025      0A160803 
 1025      141A121D 
 1025      0F
 1026 32fd 0D050201 		.ascii	"\015\005\002\001\033\005\036\013\035\011\000\002\027"
 1026      1B051E0B 
 1026      1D090002 
 1026      17
 1027 330a 1F0C0B10 		.ascii	"\037\014\013\020\015\024\014\020\031\004\031\022\003"
 1027      0D140C10 
 1027      19041912 
 1027      03
 1028 3317 11151B0D 		.ascii	"\021\025\033\015\034\011\035\004\003\037\037\011\036"
 1028      1C091D04 
 1028      031F1F09 
 1028      1E
 1029 3324 17050B0C 		.ascii	"\027\005\013\014\006\022\010\027\003\034\001\003\002"
 1029      06120817 
 1029      031C0103 
 1029      02
 1030 3331 1A0E070E 		.ascii	"\032\016\007\016\015\010\022\002\025\023\016\013\017"
 1030      0D081202 
 1030      15130E0B 
 1030      0F
 1031 333e 0507000F 		.ascii	"\005\007\000\017\031\017\005\015\004\000\012\020\026"
 1031      190F050D 
 1031      04000A10 
 1031      16
 1032 334b 0D19160C 		.ascii	"\015\031\026\014\012\037\026\030\001\011\021\020\006"
 1032      0A1F1618 
 1032      01091110 
 1032      06
 1033 3358 1F090401 		.ascii	"\037\011\004\001\000\021\004\036\034\033\014\037\034"
 1033      0011041E 
 1033      1C1B0C1F 
 1033      1C
 1034 3365 140D0D17 		.ascii	"\024\015\015\027\024\025\037\002\016\000\013\020\010"
 1034      14151F02 
 1034      0E000B10 
 1034      08
 1035 3372 140A1511 		.ascii	"\024\012\025\021\030\013\011\026\006\010\000\034\000"
 1035      180B0916 
 1035      0608001C 
 1035      00
 1036 337f 120A0C18 		.ascii	"\022\012\014\030\034\011\007\005\037\012\002\036\010"
 1036      1C090705 
 1036      1F0A021E 
 1036      08
 1037 338c 06100A03 		.ascii	"\006\020\012\003\013\022\030\032\035\000\015\002\037"
 1037      0B12181A 
 1037      1D000D02 
 1037      1F
 1038 3399 0C141902 		.ascii	"\014\024\031\002\000\015\031\026\010\031\021\032\020"
 1038      000D1916 
 1038      0819111A 
 1038      10
 1039 33a6 041F1C0F 		.ascii	"\004\037\034\017\001\022\005\023\005\025\036\030\021"
 1039      01120513 
 1039      05151E18 
 1039      11
 1040 33b3 0F140719 		.ascii	"\017\024\007\031\014\000\011\034\037\031\024\002\031"
 1040      0C00091C 
 1040      1F191402 
 1040      19
 1041 33c0 0210190D 		.ascii	"\002\020\031\015\030\000\021\026\007\030\002\010\031"
 1041      18001116 
 1041      07180208 
 1041      19
 1042 33cd 0D0A1506 		.ascii	"\015\012\025\006\014\027\005\031\022\033\005\015\003"
 1042      0C170519 
 1042      121B050D 
 1042      03
 1043 33da 1D000509 		.ascii	"\035\000\005\011\004\031\021\037\005\027\020\037\025"
 1043      0419111F 
 1043      0517101F 
 1043      15
 1044 33e7 1F1B1D17 		.ascii	"\037\033\035\027\031\017\016\003\030\020\020\030\032"
 1044      190F0E03 
 1044      18101018 
 1044      1A
 1045 33f4 09161914 		.ascii	"\011\026\031\024\033\005\000\012\017\033\005\016\001"
 1045      1B05000A 
 1045      0F1B050E 
 1045      01
 1046 3401 1C0D1D17 		.ascii	"\034\015\035\027\033\015\023\020\035\033\001\010\023"
 1046      1B0D1310 
 1046      1D1B0108 
 1046      13
 1047 340e 050C1714 		.ascii	"\005\014\027\024\035\003\030\021\025\003\027\017\005"
 1047      1D031811 
 1047      1503170F 
 1047      05
 1048 341b 040E0A03 		.ascii	"\004\016\012\003\023\035\025\005\026\006\007\006\014"
 1048      131D1505 
 1048      16060706 
 1048      0C
 1049 3428 081C080C 		.ascii	"\010\034\010\014\022\022\002\024\035\033\000\012\014"
 1049      12120214 
 1049      1D1B000A 
 1049      0C
 1050 3435 1B0F0F11 		.ascii	"\033\017\017\021\025\024\034\007\007\012\022\003\005"
 1050      15141C07 
 1050      070A1203 
 1050      05
 1051 3442 1105170D 		.ascii	"\021\005\027\015\012\005\002\014\010\021\003\037\000"
 1051      0A05020C 
 1051      0811031F 
 1051      00
 1052 344f 0E131409 		.ascii	"\016\023\024\011\016\011\010\026\031\024\027\001\037"
 1052      0E090816 
 1052      19141701 
 1052      1F
 1053 345c 1C111200 		.ascii	"\034\021\022\000\032\033\020\010\003\005\003\003\002"
 1053      1A1B1008 
 1053      03050303 
 1053      02
 1054 3469 180F1212 		.ascii	"\030\017\022\022\017\014\002\026\027\022\033\005\024"
 1054      0F0C0216 
 1054      17121B05 
 1054      14
 1055 3476 1F161804 		.ascii	"\037\026\030\004\030\003\021\007\036\001\010\031\026"
 1055      18031107 
 1055      1E010819 
 1055      16
 1056 3483 04101D0D 		.ascii	"\004\020\035\015\013\032\000\033\007\000\016\033\017"
 1056      0B1A001B 
 1056      07000E1B 
 1056      0F
 1057 3490 11030017 		.ascii	"\021\003\000\027\000\011\002\000\025\013\005\012\020"
 1057      00090200 
 1057      150B050A 
 1057      10
 1058 349d 07060E00 		.ascii	"\007\006\016\000\030\003\036\000\027\012\025\033\002"
 1058      18031E00 
 1058      170A151B 
 1058      02
 1059 34aa 1F091A0F 		.ascii	"\037\011\032\017\024\005\007\034\017\022\014\030\002"
 1059      1405071C 
 1059      0F120C18 
 1059      02
 1060 34b7 050C0C1A 		.ascii	"\005\014\014\032\034\030\016\022\037\016\023\007\023"
 1060      1C180E12 
 1060      1F0E1307 
 1060      13
 1061 34c4 0A180417 		.ascii	"\012\030\004\027\003\003\022\034\027\013\000\012\011"
 1061      0303121C 
 1061      170B000A 
 1061      09
 1062 34d1 01110018 		.ascii	"\001\021\000\030\011\023\027\025\012\032\021\004\017"
 1062      09131715 
 1062      0A1A1104 
 1062      0F
 1063 34de 1F151312 		.ascii	"\037\025\023\022\002\007\031\005\026\034\035\034\023"
 1063      02071905 
 1063      161C1D1C 
 1063      13
 1064 34eb 1F1E1816 		.ascii	"\037\036\030\026\025\030\020\020\020\022\020\037\011"
 1064      15181010 
 1064      1012101F 
 1064      09
 1065 34f8 05180D1F 		.ascii	"\005\030\015\037\000\030\010\025\005\017\001\031\007"
 1065      00180815 
 1065      050F0119 
 1065      07
 1066 3505 131C1002 		.ascii	"\023\034\020\002\030\013\012\016\026\030\020\012\007"
 1066      180B0A0E 
 1066      1618100A 
 1066      07
 1067 3512 12090C06 		.ascii	"\022\011\014\006\012\034\004\034\030\001\007\033\016"
 1067      0A1C041C 
 1067      1801071B 
 1067      0E
 1068 351f 06110510 		.ascii	"\006\021\005\020\006\035\014\024\017\010\007\022\031"
 1068      061D0C14 
 1068      0F080712 
 1068      19
 1069 352c 00151B13 		.ascii	"\000\025\033\023\012\007\014\022\007\034\011\005\006"
 1069      0A070C12 
 1069      071C0905 
 1069      06
 1070 3539 0D0C0C0A 		.ascii	"\015\014\014\012\001\012\024\007\033\023\012\023\036"
 1070      010A1407 
 1070      1B130A13 
 1070      1E
 1071 3546 0E10191B 		.ascii	"\016\020\031\033\011\002\015\025\027\034\013\035\003"
 1071      09020D15 
 1071      171C0B1D 
 1071      03
 1072 3553 15121B1A 		.ascii	"\025\022\033\032\014\016\020\007\036\001\020\015\004"
 1072      0C0E1007 
 1072      1E01100D 
 1072      04
 1073 3560 02011C01 		.ascii	"\002\001\034\001\000\013\032\012\030\012\007\036\037"
 1073      000B1A0A 
 1073      180A071E 
 1073      1F
 1074 356d 0C0A080A 		.ascii	"\014\012\010\012\010\021\027\027\012\034\024\012\014"
 1074      08111717 
 1074      0A1C140A 
 1074      0C
 1075 357a 17081906 		.ascii	"\027\010\031\006\014\026\016\032\013\001\013\002\010"
 1075      0C160E1A 
 1075      0B010B02 
 1075      08
 1076 3587 10161A1A 		.ascii	"\020\026\032\032\014\012\015\011\015\010\022\037\034"
 1076      0C0A0D09 
 1076      0D08121F 
 1076      1C
 1077 3594 1F061010 		.ascii	"\037\006\020\020\000\036\017\023\015\020\010\026\003"
 1077      001E0F13 
 1077      0D100816 
 1077      03
 1078 35a1 130E1618 		.ascii	"\023\016\026\030\000\007\026\012\031\006\014\007\020"
 1078      0007160A 
 1078      19060C07 
 1078      10
 1079 35ae 05160E15 		.ascii	"\005\026\016\025\006\032\006\014\036\027\027\032\024"
 1079      061A060C 
 1079      1E17171A 
 1079      14
 1080 35bb 03110A02 		.ascii	"\003\021\012\002\001\031\003\010\005\022\011\016\012"
 1080      01190308 
 1080      0512090E 
 1080      0A
 1081 35c8 000B0A1A 		.ascii	"\000\013\012\032\001\000\032\025\007\023\035\002\017"
 1081      01001A15 
 1081      07131D02 
 1081      0F
 1082 35d5 110A020F 		.ascii	"\021\012\002\017\030\007\005\025\004\035\000\027\004"
 1082      18070515 
 1082      041D0017 
 1082      04
 1083 35e2 091E0D1A 		.ascii	"\011\036\015\032\037\024\020\003\000\003\002\031\011"
 1083      1F141003 
 1083      00030219 
 1083      09
 1084 35ef 0C141103 		.ascii	"\014\024\021\003\011\006\004\025\010\021\012\024\013"
 1084      09060415 
 1084      08110A14 
 1084      0B
 1085 35fc 03091F10 		.ascii	"\003\011\037\020\037\010\017\015\020\003\004\020\031"
 1085      1F080F0D 
 1085      10030410 
 1085      19
 1086 3609 1D070D14 		.ascii	"\035\007\015\024\005\002\015\030\036\004\020\013\012"
 1086      05020D18 
 1086      1E04100B 
 1086      0A
 1087 3616 05151F1D 		.ascii	"\005\025\037\035\027\017\025\020\003\037\021\026\015"
 1087      170F1510 
 1087      031F1116 
 1087      0D
 1088 3623 161D0A0B 		.ascii	"\026\035\012\013\037\021\007\030\016\035\007\030\022"
 1088      1F110718 
 1088      0E1D0718 
 1088      12
 1089 3630 16160519 		.ascii	"\026\026\005\031\014\021\025\004\026\023\030\032\022"
 1089      0C111504 
 1089      1613181A 
 1089      12
 1090 363d 0C11121D 		.ascii	"\014\021\022\035\012\005\035\007\020\004\035\003\015"
 1090      0A051D07 
 1090      10041D03 
 1090      0D
 1091 364a 0E050410 		.ascii	"\016\005\004\020\012\021\020\017\014\034\013\001\032"
 1091      0A11100F 
 1091      0C1C0B01 
 1091      1A
 1092 3657 1F020701 		.ascii	"\037\002\007\001\033\020\002\032\021\030\020\035\002"
 1092      1B10021A 
 1092      1118101D 
 1092      02
 1093 3664 15001014 		.ascii	"\025\000\020\024\001\002\014\021\023\017\026\010\036"
 1093      01020C11 
 1093      130F1608 
 1093      1E
 1094 3671 0B0A1E02 		.ascii	"\013\012\036\002\024\023\035\014\000\015\031\022\025"
 1094      14131D0C 
 1094      000D1912 
 1094      15
 1095 367e 120D1A0F 		.ascii	"\022\015\032\017\006\005\033\000\027\007\021\036\007"
 1095      06051B00 
 1095      1707111E 
 1095      07
 1096 368b 0816191A 		.ascii	"\010\026\031\032\002\035\006\015\005\026\024\017\014"
 1096      021D060D 
 1096      0516140F 
 1096      0C
 1097 3698 160E0104 		.ascii	"\026\016\001\004\035\004\034\003\013\016\003\013\020"
 1097      1D041C03 
 1097      0B0E030B 
 1097      10
 1098 36a5 181B1C00 		.ascii	"\030\033\034\000\035\021\030\026\031\020\002"
 1098      1D111816 
 1098      191002
 1099 36b0 02170811 		.ascii	"\002\027\010\021\004\020\030\022\010\024\032\022\032"
 1099      04101812 
 1099      08141A12 
 1099      1A
 1100 36bd 03130E18 		.ascii	"\003\023\016\030\035\012\002\033\037\017\032\030\003"
 1100      1D0A021B 
 1100      1F0F1A18 
 1100      03
 1101 36ca 130D0B01 		.ascii	"\023\015\013\001\003\020\010\010\027\016\002\022\025"
 1101      03100808 
 1101      170E0212 
 1101      15
 1102 36d7 0401090A 		.ascii	"\004\001\011\012\003\007\002\024\026\025\015\020\026"
 1102      03070214 
 1102      16150D10 
 1102      16
 1103 36e4 1F151005 		.ascii	"\037\025\020\005\003\002\010\017\013\010\023\000\022"
 1103      0302080F 
 1103      0B081300 
 1103      12
 1104 36f1 020B061C 		.ascii	"\002\013\006\034\025\031\011\011\016\023\030\033\026"
 1104      15190909 
 1104      0E13181B 
 1104      16
 1105 36fe 0019061C 		.ascii	"\000\031\006\034\034\031\012\037\015\021\015\002\037"
 1105      1C190A1F 
 1105      0D110D02 
 1105      1F
 1106 370b 00190C06 		.ascii	"\000\031\014\006\037\017\033\010\007\026\001\014\000"
 1106      1F0F1B08 
 1106      0716010C 
 1106      00
 1107 3718 061A1107 		.ascii	"\006\032\021\007\016\025\036\037\005\023\033\025\025"
 1107      0E151E1F 
 1107      05131B15 
 1107      15
 1108 3725 191A0D13 		.ascii	"\031\032\015\023\002\035\014\033\027\010\037\001\021"
 1108      021D0C1B 
 1108      17081F01 
 1108      11
 1109 3732 02000913 		.ascii	"\002\000\011\023\012\000\031\000\032\007\032\015\013"
 1109      0A001900 
 1109      1A071A0D 
 1109      0B
 1110 373f 1A1D0A0B 		.ascii	"\032\035\012\013\013\032\025\037\011\005\013\014\002"
 1110      0B1A151F 
 1110      09050B0C 
 1110      02
 1111 374c 1D080D02 		.ascii	"\035\010\015\002\026\035\014\023\024\022\002\032\010"
 1111      161D0C13 
 1111      1412021A 
 1111      08
 1112 3759 08141600 		.ascii	"\010\024\026\000\010\016\037\016\021\031\021\025\022"
 1112      080E1F0E 
 1112      11191115 
 1112      12
 1113 3766 0B040515 		.ascii	"\013\004\005\025\013\023\031\027\000\016\027\000\026"
 1113      0B131917 
 1113      000E1700 
 1113      16
 1114 3773 001E0019 		.ascii	"\000\036\000\031\034\025\020\001\023\012\022\035\001"
 1114      1C151001 
 1114      130A121D 
 1114      01
 1115 3780 0A0E1E1D 		.ascii	"\012\016\036\035\014\035\026\001\010\022\033\033\015"
 1115      0C1D1601 
 1115      08121B1B 
 1115      0D
 1116 378d 1E190202 		.ascii	"\036\031\002\002\020\020\031\032\032\031\007\005\006"
 1116      1010191A 
 1116      1A190705 
 1116      06
 1117 379a 1E050C13 		.ascii	"\036\005\014\023\004\023\007\007\010\011\037\007\032"
 1117      04130707 
 1117      08091F07 
 1117      1A
 1118 37a7 0A130E12 		.ascii	"\012\023\016\022\005\037\021\033\005\033\010\034\027"
 1118      051F111B 
 1118      051B081C 
 1118      17
 1119 37b4 1E051010 		.ascii	"\036\005\020\020\013\016\016\023\020\020\034\037\036"
 1119      0B0E0E13 
 1119      10101C1F 
 1119      1E
 1120 37c1 041A0005 		.ascii	"\004\032\000\005\004\015\030\000\017\031\015\012\005"
 1120      040D1800 
 1120      0F190D0A 
 1120      05
 1121 37ce 0F171C1F 		.ascii	"\017\027\034\037\010\002\014\004\021\001\022\025\024"
 1121      08020C04 
 1121      11011215 
 1121      14
 1122 37db 0316051C 		.ascii	"\003\026\005\034\023\031\037\032\020\017\027\004\016"
 1122      13191F1A 
 1122      100F1704 
 1122      0E
 1123 37e8 1F131B0C 		.ascii	"\037\023\033\014\014\037\001\023\014\010\032\000\030"
 1123      0C1F0113 
 1123      0C081A00 
 1123      18
 1124 37f5 14100115 		.ascii	"\024\020\001\025\024\003\002\020\015\030\006\001\022"
 1124      14030210 
 1124      0D180601 
 1124      12
 1125 3802 1C1A0907 		.ascii	"\034\032\011\007\000\026\000\003\005\006\011\004\011"
 1125      00160003 
 1125      05060904 
 1125      09
 1126 380f 16101412 		.ascii	"\026\020\024\022\037\000\025\022\003\016\025\015\014"
 1126      1F001512 
 1126      030E150D 
 1126      0C
 1127 381c 0D160712 		.ascii	"\015\026\007\022\022\017\014\022\021\011\024\012\011"
 1127      120F0C12 
 1127      1109140A 
 1127      09
 1128 3829 1E15121D 		.ascii	"\036\025\022\035\033\010\002\034\013\025\005\036\020"
 1128      1B08021C 
 1128      0B15051E 
 1128      10
 1129 3836 17080C13 		.ascii	"\027\010\014\023\030\013\010\003\015\036\000\015\012"
 1129      180B0803 
 1129      0D1E000D 
 1129      0A
 1130 3843 06111600 		.ascii	"\006\021\026\000\001\006\022\001\034\001\013\024\004"
 1130      01061201 
 1130      1C010B14 
 1130      04
 1131 3850 040D1814 		.ascii	"\004\015\030\024\024\021\016\011\022\025\031\004\026"
 1131      14110E09 
 1131      12151904 
 1131      16
 1132 385d 02040611 		.ascii	"\002\004\006\021\006\034\016\036\005\003\033\033\035"
 1132      061C0E1E 
 1132      05031B1B 
 1132      1D
 1133 386a 1E111F0D 		.ascii	"\036\021\037\015\020\024\001\000\034\015\004\015\031"
 1133      10140100 
 1133      1C0D040D 
 1133      19
 1134 3877 10111719 		.ascii	"\020\021\027\031\030\030\024\016\032\016\011\006\037"
 1134      1818140E 
 1134      1A0E0906 
 1134      1F
 1135 3884 141F0413 		.ascii	"\024\037\004\023\030\016\030\022\025\031\023\017\013"
 1135      180E1812 
 1135      1519130F 
 1135      0B
 1136 3891 0C051116 		.ascii	"\014\005\021\026\013\032\006\023\033\032\037\021\027"
 1136      0B1A0613 
 1136      1B1A1F11 
 1136      17
 1137 389e 0E00150F 		.ascii	"\016\000\025\017\007\026\026\036\023\006\002\030\010"
 1137      0716161E 
 1137      13060218 
 1137      08
 1138 38ab 15131E13 		.ascii	"\025\023\036\023\031\000\014\001\020\031\002\007\024"
 1138      19000C01 
 1138      10190207 
 1138      14
 1139 38b8 081B1705 		.ascii	"\010\033\027\005\027\033\011\022\026\017\011\014\003"
 1139      171B0912 
 1139      160F090C 
 1139      03
 1140 38c5 1C011918 		.ascii	"\034\001\031\030\022\015\004\000\017\015\007\025\002"
 1140      120D0400 
 1140      0F0D0715 
 1140      02
 1141 38d2 1B080703 		.ascii	"\033\010\007\003\025\030\013\007\025\000\005\016\006"
 1141      15180B07 
 1141      1500050E 
 1141      06
 1142 38df 051C1B0C 		.ascii	"\005\034\033\014\030\005\037\014\036\001\027\024\003"
 1142      18051F0C 
 1142      1E011714 
 1142      03
 1143 38ec 1B0E0605 		.ascii	"\033\016\006\005\022\034\035\034\017\004\005\032\032"
 1143      121C1D1C 
 1143      0F04051A 
 1143      1A
 1144 38f9 0A101113 		.ascii	"\012\020\021\023\024\024\012\004\002\023\005\012\037"
 1144      14140A04 
 1144      0213050A 
 1144      1F
 1145 3906 19070811 		.ascii	"\031\007\010\021\032\012\003\000\016\012\032\001\021"
 1145      1A0A0300 
 1145      0E0A1A01 
 1145      11
 1146 3913 0D0D1C07 		.ascii	"\015\015\034\007\022\033\011\025\000\035\036\015\020"
 1146      121B0915 
 1146      001D1E0D 
 1146      10
 1147 3920 0C14080F 		.ascii	"\014\024\010\017\025\011\015\020\015\015\013\026\012"
 1147      15090D10 
 1147      0D0D0B16 
 1147      0A
 1148 392d 0D100E19 		.ascii	"\015\020\016\031\025\021\006\027\034\007\007\023\034"
 1148      15110617 
 1148      1C070713 
 1148      1C
 1149 393a 0C181419 		.ascii	"\014\030\024\031\027\021\027\032\020\023\005\016\035"
 1149      1711171A 
 1149      1013050E 
 1149      1D
 1150 3947 051C1B07 		.ascii	"\005\034\033\007\025\035\007\010\036\013\002\013\030"
 1150      151D0708 
 1150      1E0B020B 
 1150      18
 1151 3954 03060708 		.ascii	"\003\006\007\010\013\006\033\015\017\035\013\005\027"
 1151      0B061B0D 
 1151      0F1D0B05 
 1151      17
 1152 3961 19080603 		.ascii	"\031\010\006\003\020\014\030\006\011\012\027\026\034"
 1152      100C1806 
 1152      090A1716 
 1152      1C
 1153 396e 101A1E03 		.ascii	"\020\032\036\003\025\020\021\037\020\010\031\012\023"
 1153      1510111F 
 1153      1008190A 
 1153      13
 1154 397b 1907170B 		.ascii	"\031\007\027\013\027\022\022\014\015\025\012\035\035"
 1154      1712120C 
 1154      0D150A1D 
 1154      1D
 1155 3988 1F1D170E 		.ascii	"\037\035\027\016\012\011\021\000\032\003\020\013\026"
 1155      0A091100 
 1155      1A03100B 
 1155      16
 1156 3995 041C1404 		.ascii	"\004\034\024\004\010\001\013\007\024\027\037\006\007"
 1156      08010B07 
 1156      14171F06 
 1156      07
 1157 39a2 00040501 		.ascii	"\000\004\005\001\003\034\004\023\010\031\004\022\022"
 1157      031C0413 
 1157      08190412 
 1157      12
 1158 39af 1A0D0B0E 		.ascii	"\032\015\013\016\024\011\002\022\025\000\002\037\012"
 1158      14090212 
 1158      1500021F 
 1158      0A
 1159 39bc 0F110908 		.ascii	"\017\021\011\010\010\031\034\012\012\035\010\021\011"
 1159      08191C0A 
 1159      0A1D0811 
 1159      09
 1160 39c9 1D131C0E 		.ascii	"\035\023\034\016\027\036\022\004\022\012\005\031\001"
 1160      171E1204 
 1160      120A0519 
 1160      01
 1161 39d6 1E0F0018 		.ascii	"\036\017\000\030\037\030\014\037\034\034\017\034\012"
 1161      1F180C1F 
 1161      1C1C0F1C 
 1161      0A
 1162 39e3 161D0A04 		.ascii	"\026\035\012\004\027\015\026\037\015\035\026\027\024"
 1162      170D161F 
 1162      0D1D1617 
 1162      14
 1163 39f0 031C1904 		.ascii	"\003\034\031\004\017\014\036\000\031\001\017\003\033"
 1163      0F0C1E00 
 1163      19010F03 
 1163      1B
 1164 39fd 1C051010 		.ascii	"\034\005\020\020\002\027\035\014\025\010\005\030\016"
 1164      02171D0C 
 1164      15080518 
 1164      0E
 1165 3a0a 1D0C0100 		.ascii	"\035\014\001\000\023\031\036\033\032\010\002\010\035"
 1165      13191E1B 
 1165      1A080208 
 1165      1D
 1166 3a17 08020910 		.ascii	"\010\002\011\020\023\023\010\017\024\024\020\010\027"
 1166      1313080F 
 1166      14141008 
 1166      17
 1167 3a24 15190103 		.ascii	"\025\031\001\003\020\000\027\015\015\023\002\016\000"
 1167      1000170D 
 1167      0D13020E 
 1167      00
 1168 3a31 1A041B1D 		.ascii	"\032\004\033\035\037\021\022\027\014\005\035\026\021"
 1168      1F111217 
 1168      0C051D16 
 1168      11
 1169 3a3e 15190D03 		.ascii	"\025\031\015\003\037\031\035\027\020\025\037\011\011"
 1169      1F191D17 
 1169      10151F09 
 1169      09
 1170 3a4b 1E010704 		.ascii	"\036\001\007\004\024\005\007\007\012\032\007\035\026"
 1170      14050707 
 1170      0A1A071D 
 1170      16
 1171 3a58 0F190218 		.ascii	"\017\031\002\030\035\026\027\014\036\030\022\033\016"
 1171      1D16170C 
 1171      1E18121B 
 1171      0E
 1172 3a65 10020D13 		.ascii	"\020\002\015\023\037\026\030\000\034\003\021\003\023"
 1172      1F161800 
 1172      1C031103 
 1172      13
 1173 3a72 07020F1D 		.ascii	"\007\002\017\035\013\023\026\013\022\024\025\005\013"
 1173      0B13160B 
 1173      12141505 
 1173      0B
 1174 3a7f 021B170F 		.ascii	"\002\033\027\017\033\011\034\010\035\027\005\015\013"
 1174      1B091C08 
 1174      1D17050D 
 1174      0B
 1175 3a8c 1C100D10 		.ascii	"\034\020\015\020\022\022\010\000\034\015\025\020\004"
 1175      12120800 
 1175      1C0D1510 
 1175      04
 1176 3a99 1B030702 		.ascii	"\033\003\007\002\037\003\014\022\024\036\021\020\020"
 1176      1F030C12 
 1176      141E1110 
 1176      10
 1177 3aa6 0617121A 		.ascii	"\006\027\022\032\031\027\010\030\033\002\033\035\033"
 1177      19170818 
 1177      1B021B1D 
 1177      1B
 1178 3ab3 190B091C 		.ascii	"\031\013\011\034\004\000\027\007\022\030\035\007\026"
 1178      04001707 
 1178      12181D07 
 1178      16
 1179 3ac0 09171216 		.ascii	"\011\027\022\026\024\004\011\001\000\034\020\005\020"
 1179      14040901 
 1179      001C1005 
 1179      10
 1180 3acd 0F030F14 		.ascii	"\017\003\017\024\014\006\003\020\031\001\002\023\021"
 1180      0C060310 
 1180      19010213 
 1180      11
 1181 3ada 130A0E0F 		.ascii	"\023\012\016\017\026\022\014\037\023\006\026\003\003"
 1181      16120C1F 
 1181      13061603 
 1181      03
 1182 3ae7 140A041F 		.ascii	"\024\012\004\037\000\014\031\001\026\010\022\026\037"
 1182      000C1901 
 1182      16081216 
 1182      1F
 1183 3af4 030A1005 		.ascii	"\003\012\020\005\005\034\033\027\024\033\014\004\001"
 1183      051C1B17 
 1183      141B0C04 
 1183      01
 1184 3b01 1F0C0510 		.ascii	"\037\014\005\020\032\031\035\005\020\002\025\014\012"
 1184      1A191D05 
 1184      1002150C 
 1184      0A
 1185 3b0e 0D161D14 		.ascii	"\015\026\035\024\004\037\032\016\007\015\025\035\014"
 1185      041F1A0E 
 1185      070D151D 
 1185      0C
 1186 3b1b 031D0F02 		.ascii	"\003\035\017\002\026\005\034\026\021\021\016\005\034"
 1186      16051C16 
 1186      11110E05 
 1186      1C
 1187 3b28 1A09151E 		.ascii	"\032\011\025\036\002\005\027\033\034\031\016\003\007"
 1187      0205171B 
 1187      1C190E03 
 1187      07
 1188 3b35 021A1E1E 		.ascii	"\002\032\036\036\004\013\002\034\033\033\015\025\017"
 1188      040B021C 
 1188      1B1B0D15 
 1188      0F
 1189 3b42 07001F04 		.ascii	"\007\000\037\004\005\014\006\016\014\022\021\036\015"
 1189      050C060E 
 1189      0C12111E 
 1189      0D
 1190 3b4f 05000E1F 		.ascii	"\005\000\016\037\000\027\011\025\035\033\031\014\037"
 1190      00170915 
 1190      1D1B190C 
 1190      1F
 1191 3b5c 170E0618 		.ascii	"\027\016\006\030\016\037\010\017\010\006\030\016\000"
 1191      0E1F080F 
 1191      0806180E 
 1191      00
 1192 3b69 1A071211 		.ascii	"\032\007\022\021\033\014\015\022\037\022\016\032\002"
 1192      1B0C0D12 
 1192      1F120E1A 
 1192      02
 1193 3b76 15000116 		.ascii	"\025\000\001\026\010\022\021\033\021\034\006\026\011"
 1193      0812111B 
 1193      111C0616 
 1193      09
 1194 3b83 121C1F12 		.ascii	"\022\034\037\022\006\030\003\012\002\034\034\026\013"
 1194      0618030A 
 1194      021C1C16 
 1194      0B
 1195 3b90 10150E06 		.ascii	"\020\025\016\006\003\027\001\015\031\032\037\012\037"
 1195      0317010D 
 1195      191A1F0A 
 1195      1F
 1196 3b9d 190D1018 		.ascii	"\031\015\020\030\021\010\011\032\037\002\005\010\024"
 1196      1108091A 
 1196      1F020508 
 1196      14
 1197 3baa 09090716 		.ascii	"\011\011\007\026\033\005\006\032\024\017\034\025\007"
 1197      1B05061A 
 1197      140F1C15 
 1197      07
 1198 3bb7 001A0116 		.ascii	"\000\032\001\026\035\000\004\020\025\007\016\003\035"
 1198      1D000410 
 1198      15070E03 
 1198      1D
 1199 3bc4 0012011B 		.ascii	"\000\022\001\033\002\006\000\037\023\000\007\035\017"
 1199      0206001F 
 1199      1300071D 
 1199      0F
 1200 3bd1 1C100F00 		.ascii	"\034\020\017\000\032\007\025\021\035\011\020\023\014"
 1200      1A071511 
 1200      1D091013 
 1200      0C
 1201 3bde 19150F00 		.ascii	"\031\025\017\000\037\000\004\012\006\002\003\010\005"
 1201      1F00040A 
 1201      06020308 
 1201      05
 1202 3beb 1C14090E 		.ascii	"\034\024\011\016\024\030\013\004\017\015\015\003\017"
 1202      14180B04 
 1202      0F0D0D03 
 1202      0F
 1203 3bf8 180E1904 		.ascii	"\030\016\031\004\013\013\035\002\026\021\025\016\012"
 1203      0B0B1D02 
 1203      1611150E 
 1203      0A
 1204 3c05 11091C1E 		.ascii	"\021\011\034\036\027\017\007\025\033\020\005\000\033"
 1204      170F0715 
 1204      1B100500 
 1204      1B
 1205 3c12 00190703 		.ascii	"\000\031\007\003\036\022\034\012\004\025\015\002\001"
 1205      1E121C0A 
 1205      04150D02 
 1205      01
 1206 3c1f 1B1B1F0B 		.ascii	"\033\033\037\013\015\014\031\001\036\001\011\030\034"
 1206      0D0C1901 
 1206      1E010918 
 1206      1C
 1207 3c2c 0E0D031F 		.ascii	"\016\015\003\037\031\037\011\000\032\004\015\032\017"
 1207      191F0900 
 1207      1A040D1A 
 1207      0F
 1208 3c39 191A0519 		.ascii	"\031\032\005\031\025\016\001\023\014\032\014\027\012"
 1208      150E0113 
 1208      0C1A0C17 
 1208      0A
 1209 3c46 061D1F11 		.ascii	"\006\035\037\021\020\033\002\007\010\004\006\001\030"
 1209      101B0207 
 1209      08040601 
 1209      18
 1210 3c53 01060B1C 		.ascii	"\001\006\013\034\003\014\023\034\000\021\034\030\022"
 1210      030C131C 
 1210      00111C18 
 1210      12
 1211 3c60 01020E1A 		.ascii	"\001\002\016\032\024\022\013\027\020\023\011\002\031"
 1211      14120B17 
 1211      10130902 
 1211      19
 1212 3c6d 0A18061A 		.ascii	"\012\030\006\032\013\021\036\032\015\013\010\001\025"
 1212      0B111E1A 
 1212      0D0B0801 
 1212      15
 1213 3c7a 041D0B02 		.ascii	"\004\035\013\002\035\005\013\027\020\022\005\037\035"
 1213      1D050B17 
 1213      1012051F 
 1213      1D
 1214 3c87 12171A03 		.ascii	"\022\027\032\003\011\036\011\033\004\016\025\016\014"
 1214      091E091B 
 1214      040E150E 
 1214      0C
 1215 3c94 070C131A 		.ascii	"\007\014\023\032\010\022\032\022\020\027\027\031\011"
 1215      08121A12 
 1215      10171719 
 1215      09
 1216 3ca1 02020D0D 		.ascii	"\002\002\015\015\002\005\007\011\025\024\013\033\023"
 1216      02050709 
 1216      15140B1B 
 1216      13
 1217 3cae 01000405 		.ascii	"\001\000\004\005\006\025\013\011\013\016\034\033\030"
 1217      06150B09 
 1217      0B0E1C1B 
 1217      18
 1218 3cbb 16100617 		.ascii	"\026\020\006\027\030\017\032\020\024\021\025\011\014"
 1218      180F1A10 
 1218      14111509 
 1218      0C
 1219 3cc8 171E060A 		.ascii	"\027\036\006\012\010\026\026\034\034\016\001\020\007"
 1219      0816161C 
 1219      1C0E0110 
 1219      07
 1220 3cd5 0D04191B 		.ascii	"\015\004\031\033\004\030\014\026\007\027\036\007\016"
 1220      04180C16 
 1220      07171E07 
 1220      0E
 1221 3ce2 09030D01 		.ascii	"\011\003\015\001\013\030\024\003\024\036\031\001\006"
 1221      0B181403 
 1221      141E1901 
 1221      06
 1222 3cef 0F130C05 		.ascii	"\017\023\014\005\022\035\013\011\006\015\035\035\010"
 1222      121D0B09 
 1222      060D1D1D 
 1222      08
 1223 3cfc 020E1305 		.ascii	"\002\016\023\005\017\036\005\032\020\015\033\007\006"
 1223      0F1E051A 
 1223      100D1B07 
 1223      06
 1224 3d09 1A000E08 		.ascii	"\032\000\016\010\034\026\033\021\025\025\027\025\020"
 1224      1C161B11 
 1224      15151715 
 1224      10
 1225 3d16 19130C13 		.ascii	"\031\023\014\023\000\037\000\013\002\014\001\035\005"
 1225      001F000B 
 1225      020C011D 
 1225      05
 1226 3d23 171D100E 		.ascii	"\027\035\020\016\000\007\024\001\023"
 1226      00071401 
 1226      13
 1227              		.global	oilspace
 1228              		.align	2
 1231              	oilspace:
 1232 3d2c 1119081D 		.ascii	"\021\031\010\035\032\003\007\030\000\000\001\003\001"
 1232      1A030718 
 1232      00000103 
 1232      01
 1233 3d39 061C1402 		.ascii	"\006\034\024\002\014\012\006\004\032\012\000\024\000"
 1233      0C0A0604 
 1233      1A0A0014 
 1233      00
 1234 3d46 1B030815 		.ascii	"\033\003\010\025\022\015\036\033\012\005\025\006\031"
 1234      120D1E1B 
 1234      0A051506 
 1234      19
 1235 3d53 1A151A03 		.ascii	"\032\025\032\003\000\016\031\011\034\035\024\034\000"
 1235      000E1909 
 1235      1C1D141C 
 1235      00
 1236 3d60 1713021D 		.ascii	"\027\023\002\035\023\035\034\032\007\036\030\001\014"
 1236      131D1C1A 
 1236      071E1801 
 1236      0C
 1237 3d6d 1E18110A 		.ascii	"\036\030\021\012\027\027\025\001\001\021\027\003\001"
 1237      17171501 
 1237      01111703 
 1237      01
 1238 3d7a 0D1E0813 		.ascii	"\015\036\010\023\006\004\030\036\025"
 1238      0604181E 
 1238      15
 1239              		.global	trigger
 1240              		.bss
 1241              		.align	2
 1244              	trigger:
 1245 0000 00000000 		.space	4
 1246              		.section	.text.putString,"ax",%progbits
 1247              		.align	1
 1248              		.global	putString
 1249              		.arch armv7e-m
 1250              		.syntax unified
 1251              		.thumb
 1252              		.thumb_func
 1253              		.fpu softvfp
 1255              	putString:
 1256              	.LFB0:
 1257              		.file 1 "MAYO.c"
   1:MAYO.c        **** /*
   2:MAYO.c        ****     This file is part of the ChipWhisperer Example Targets
   3:MAYO.c        ****     Copyright (C) 2012-2017 NewAE Technology Inc.
   4:MAYO.c        **** 
   5:MAYO.c        ****     This program is free software: you can redistribute it and/or modify
   6:MAYO.c        ****     it under the terms of the GNU General Public License as published by
   7:MAYO.c        ****     the Free Software Foundation, either version 3 of the License, or
   8:MAYO.c        ****     (at your option) any later version.
   9:MAYO.c        **** 
  10:MAYO.c        ****     This program is distributed in the hope that it will be useful,
  11:MAYO.c        ****     but WITHOUT ANY WARRANTY; without even the implied warranty of
  12:MAYO.c        ****     MERCHANTABILITY or FITNESS FOR A PARTICULAR PURPOSE.  See the
  13:MAYO.c        ****     GNU General Public License for more details.
  14:MAYO.c        **** 
  15:MAYO.c        ****     You should have received a copy of the GNU General Public License
  16:MAYO.c        ****     along with this program.  If not, see <http://www.gnu.org/licenses/>.
  17:MAYO.c        **** */
  18:MAYO.c        **** 
  19:MAYO.c        **** #include "hal.h"
  20:MAYO.c        **** #include "simpleserial.h"
  21:MAYO.c        **** #include "MAYO.h"
  22:MAYO.c        **** //#include "arithmetic.h"
  23:MAYO.c        **** #include <stdint.h>
  24:MAYO.c        **** #include <stdlib.h>
  25:MAYO.c        **** #include <string.h>
  26:MAYO.c        **** 
  27:MAYO.c        **** #define gf256v_add _gf256v_add_u32
  28:MAYO.c        **** #define gf256v_madd _gf256v_madd_u32
  29:MAYO.c        **** 
  30:MAYO.c        **** extern unsigned char P1[15660];
  31:MAYO.c        **** extern unsigned char oilspace[87];
  32:MAYO.c        **** 
  33:MAYO.c        **** extern uint32_t trigger;
  34:MAYO.c        **** 
  35:MAYO.c        **** 
  36:MAYO.c        **** void putString(const unsigned char *string, const unsigned int length)
  37:MAYO.c        **** {
 1258              		.loc 1 37 1
 1259              		.cfi_startproc
 1260              		@ args = 0, pretend = 0, frame = 16
 1261              		@ frame_needed = 1, uses_anonymous_args = 0
 1262 0000 80B5     		push	{r7, lr}
 1263              	.LCFI0:
 1264              		.cfi_def_cfa_offset 8
 1265              		.cfi_offset 7, -8
 1266              		.cfi_offset 14, -4
 1267 0002 84B0     		sub	sp, sp, #16
 1268              	.LCFI1:
 1269              		.cfi_def_cfa_offset 24
 1270 0004 00AF     		add	r7, sp, #0
 1271              	.LCFI2:
 1272              		.cfi_def_cfa_register 7
 1273 0006 7860     		str	r0, [r7, #4]
 1274 0008 3960     		str	r1, [r7]
 1275              	.LBB2:
  38:MAYO.c        ****     for(int i=0; i<length; i++)
 1276              		.loc 1 38 13
 1277 000a 0023     		movs	r3, #0
 1278 000c FB60     		str	r3, [r7, #12]
 1279              		.loc 1 38 5
 1280 000e 09E0     		b	.L2
 1281              	.L3:
  39:MAYO.c        ****          putch(string[i]);
 1282              		.loc 1 39 22 discriminator 3
 1283 0010 FB68     		ldr	r3, [r7, #12]
 1284 0012 7A68     		ldr	r2, [r7, #4]
 1285 0014 1344     		add	r3, r3, r2
 1286              		.loc 1 39 10 discriminator 3
 1287 0016 1B78     		ldrb	r3, [r3]	@ zero_extendqisi2
 1288 0018 1846     		mov	r0, r3
 1289 001a FFF7FEFF 		bl	putch
  38:MAYO.c        ****     for(int i=0; i<length; i++)
 1290              		.loc 1 38 29 discriminator 3
 1291 001e FB68     		ldr	r3, [r7, #12]
 1292 0020 0133     		adds	r3, r3, #1
 1293 0022 FB60     		str	r3, [r7, #12]
 1294              	.L2:
  38:MAYO.c        ****     for(int i=0; i<length; i++)
 1295              		.loc 1 38 19 discriminator 1
 1296 0024 FB68     		ldr	r3, [r7, #12]
  38:MAYO.c        ****     for(int i=0; i<length; i++)
 1297              		.loc 1 38 5 discriminator 1
 1298 0026 3A68     		ldr	r2, [r7]
 1299 0028 9A42     		cmp	r2, r3
 1300 002a F1D8     		bhi	.L3
 1301              	.LBE2:
  40:MAYO.c        **** }
 1302              		.loc 1 40 1
 1303 002c 00BF     		nop
 1304 002e 00BF     		nop
 1305 0030 1037     		adds	r7, r7, #16
 1306              	.LCFI3:
 1307              		.cfi_def_cfa_offset 8
 1308 0032 BD46     		mov	sp, r7
 1309              	.LCFI4:
 1310              		.cfi_def_cfa_register 13
 1311              		@ sp needed
 1312 0034 80BD     		pop	{r7, pc}
 1313              		.cfi_endproc
 1314              	.LFE0:
 1316              		.section	.text.add_vectors,"ax",%progbits
 1317              		.align	1
 1318              		.global	add_vectors
 1319              		.syntax unified
 1320              		.thumb
 1321              		.thumb_func
 1322              		.fpu softvfp
 1324              	add_vectors:
 1325              	.LFB1:
  41:MAYO.c        **** 
  42:MAYO.c        **** void add_vectors(const unsigned char *v1, const unsigned char *v2, unsigned char *out){
 1326              		.loc 1 42 87
 1327              		.cfi_startproc
 1328              		@ args = 0, pretend = 0, frame = 24
 1329              		@ frame_needed = 1, uses_anonymous_args = 0
 1330              		@ link register save eliminated.
 1331 0000 80B4     		push	{r7}
 1332              	.LCFI5:
 1333              		.cfi_def_cfa_offset 4
 1334              		.cfi_offset 7, -4
 1335 0002 87B0     		sub	sp, sp, #28
 1336              	.LCFI6:
 1337              		.cfi_def_cfa_offset 32
 1338 0004 00AF     		add	r7, sp, #0
 1339              	.LCFI7:
 1340              		.cfi_def_cfa_register 7
 1341 0006 F860     		str	r0, [r7, #12]
 1342 0008 B960     		str	r1, [r7, #8]
 1343 000a 7A60     		str	r2, [r7, #4]
 1344              	.LBB3:
  43:MAYO.c        **** 	for (int i = 0; i < M; ++i)
 1345              		.loc 1 43 11
 1346 000c 0023     		movs	r3, #0
 1347 000e 7B61     		str	r3, [r7, #20]
 1348              		.loc 1 43 2
 1349 0010 1CE0     		b	.L5
 1350              	.L6:
  44:MAYO.c        **** 	{
  45:MAYO.c        **** 		out[i] = (((uint16_t) v1[i]) + ((uint16_t) v2[i])) % PRIME;
 1351              		.loc 1 45 27 discriminator 3
 1352 0012 7B69     		ldr	r3, [r7, #20]
 1353 0014 FA68     		ldr	r2, [r7, #12]
 1354 0016 1344     		add	r3, r3, r2
 1355 0018 1B78     		ldrb	r3, [r3]	@ zero_extendqisi2
 1356              		.loc 1 45 14 discriminator 3
 1357 001a 1946     		mov	r1, r3
 1358              		.loc 1 45 48 discriminator 3
 1359 001c 7B69     		ldr	r3, [r7, #20]
 1360 001e BA68     		ldr	r2, [r7, #8]
 1361 0020 1344     		add	r3, r3, r2
 1362 0022 1B78     		ldrb	r3, [r3]	@ zero_extendqisi2
 1363              		.loc 1 45 32 discriminator 3
 1364 0024 CA18     		adds	r2, r1, r3
 1365              		.loc 1 45 54 discriminator 3
 1366 0026 0E4B     		ldr	r3, .L7
 1367 0028 83FB0213 		smull	r1, r3, r3, r2
 1368 002c 1344     		add	r3, r3, r2
 1369 002e 1911     		asrs	r1, r3, #4
 1370 0030 D317     		asrs	r3, r2, #31
 1371 0032 C91A     		subs	r1, r1, r3
 1372 0034 0B46     		mov	r3, r1
 1373 0036 5B01     		lsls	r3, r3, #5
 1374 0038 5B1A     		subs	r3, r3, r1
 1375 003a D11A     		subs	r1, r2, r3
 1376              		.loc 1 45 6 discriminator 3
 1377 003c 7B69     		ldr	r3, [r7, #20]
 1378 003e 7A68     		ldr	r2, [r7, #4]
 1379 0040 1344     		add	r3, r3, r2
 1380              		.loc 1 45 10 discriminator 3
 1381 0042 CAB2     		uxtb	r2, r1
 1382 0044 1A70     		strb	r2, [r3]
  43:MAYO.c        **** 	for (int i = 0; i < M; ++i)
 1383              		.loc 1 43 25 discriminator 3
 1384 0046 7B69     		ldr	r3, [r7, #20]
 1385 0048 0133     		adds	r3, r3, #1
 1386 004a 7B61     		str	r3, [r7, #20]
 1387              	.L5:
  43:MAYO.c        **** 	for (int i = 0; i < M; ++i)
 1388              		.loc 1 43 2 discriminator 1
 1389 004c 7B69     		ldr	r3, [r7, #20]
 1390 004e 1D2B     		cmp	r3, #29
 1391 0050 DFDD     		ble	.L6
 1392              	.LBE3:
  46:MAYO.c        **** 	}
  47:MAYO.c        **** }
 1393              		.loc 1 47 1
 1394 0052 00BF     		nop
 1395 0054 00BF     		nop
 1396 0056 1C37     		adds	r7, r7, #28
 1397              	.LCFI8:
 1398              		.cfi_def_cfa_offset 4
 1399 0058 BD46     		mov	sp, r7
 1400              	.LCFI9:
 1401              		.cfi_def_cfa_register 13
 1402              		@ sp needed
 1403 005a 80BC     		pop	{r7}
 1404              	.LCFI10:
 1405              		.cfi_restore 7
 1406              		.cfi_def_cfa_offset 0
 1407 005c 7047     		bx	lr
 1408              	.L8:
 1409 005e 00BF     		.align	2
 1410              	.L7:
 1411 0060 43082184 		.word	-2078209981
 1412              		.cfi_endproc
 1413              	.LFE1:
 1415              		.section	.text.negate,"ax",%progbits
 1416              		.align	1
 1417              		.global	negate
 1418              		.syntax unified
 1419              		.thumb
 1420              		.thumb_func
 1421              		.fpu softvfp
 1423              	negate:
 1424              	.LFB2:
  48:MAYO.c        **** 
  49:MAYO.c        **** void negate(unsigned char* v, int len){
 1425              		.loc 1 49 39
 1426              		.cfi_startproc
 1427              		@ args = 0, pretend = 0, frame = 16
 1428              		@ frame_needed = 1, uses_anonymous_args = 0
 1429              		@ link register save eliminated.
 1430 0000 80B4     		push	{r7}
 1431              	.LCFI11:
 1432              		.cfi_def_cfa_offset 4
 1433              		.cfi_offset 7, -4
 1434 0002 85B0     		sub	sp, sp, #20
 1435              	.LCFI12:
 1436              		.cfi_def_cfa_offset 24
 1437 0004 00AF     		add	r7, sp, #0
 1438              	.LCFI13:
 1439              		.cfi_def_cfa_register 7
 1440 0006 7860     		str	r0, [r7, #4]
 1441 0008 3960     		str	r1, [r7]
 1442              	.LBB4:
  50:MAYO.c        **** 	for (int i = 0; i < len; ++i)
 1443              		.loc 1 50 11
 1444 000a 0023     		movs	r3, #0
 1445 000c FB60     		str	r3, [r7, #12]
 1446              		.loc 1 50 2
 1447 000e 18E0     		b	.L10
 1448              	.L11:
  51:MAYO.c        **** 	{
  52:MAYO.c        **** 		v[i] = (PRIME - v[i]) % PRIME;
 1449              		.loc 1 52 20 discriminator 3
 1450 0010 FB68     		ldr	r3, [r7, #12]
 1451 0012 7A68     		ldr	r2, [r7, #4]
 1452 0014 1344     		add	r3, r3, r2
 1453 0016 1B78     		ldrb	r3, [r3]	@ zero_extendqisi2
 1454              		.loc 1 52 17 discriminator 3
 1455 0018 C3F11F02 		rsb	r2, r3, #31
 1456              		.loc 1 52 25 discriminator 3
 1457 001c 0E4B     		ldr	r3, .L12
 1458 001e 83FB0213 		smull	r1, r3, r3, r2
 1459 0022 1344     		add	r3, r3, r2
 1460 0024 1911     		asrs	r1, r3, #4
 1461 0026 D317     		asrs	r3, r2, #31
 1462 0028 C91A     		subs	r1, r1, r3
 1463 002a 0B46     		mov	r3, r1
 1464 002c 5B01     		lsls	r3, r3, #5
 1465 002e 5B1A     		subs	r3, r3, r1
 1466 0030 D11A     		subs	r1, r2, r3
 1467              		.loc 1 52 4 discriminator 3
 1468 0032 FB68     		ldr	r3, [r7, #12]
 1469 0034 7A68     		ldr	r2, [r7, #4]
 1470 0036 1344     		add	r3, r3, r2
 1471              		.loc 1 52 8 discriminator 3
 1472 0038 CAB2     		uxtb	r2, r1
 1473 003a 1A70     		strb	r2, [r3]
  50:MAYO.c        **** 	for (int i = 0; i < len; ++i)
 1474              		.loc 1 50 27 discriminator 3
 1475 003c FB68     		ldr	r3, [r7, #12]
 1476 003e 0133     		adds	r3, r3, #1
 1477 0040 FB60     		str	r3, [r7, #12]
 1478              	.L10:
  50:MAYO.c        **** 	for (int i = 0; i < len; ++i)
 1479              		.loc 1 50 2 discriminator 1
 1480 0042 FA68     		ldr	r2, [r7, #12]
 1481 0044 3B68     		ldr	r3, [r7]
 1482 0046 9A42     		cmp	r2, r3
 1483 0048 E2DB     		blt	.L11
 1484              	.LBE4:
  53:MAYO.c        **** 	}
  54:MAYO.c        **** }
 1485              		.loc 1 54 1
 1486 004a 00BF     		nop
 1487 004c 00BF     		nop
 1488 004e 1437     		adds	r7, r7, #20
 1489              	.LCFI14:
 1490              		.cfi_def_cfa_offset 4
 1491 0050 BD46     		mov	sp, r7
 1492              	.LCFI15:
 1493              		.cfi_def_cfa_register 13
 1494              		@ sp needed
 1495 0052 80BC     		pop	{r7}
 1496              	.LCFI16:
 1497              		.cfi_restore 7
 1498              		.cfi_def_cfa_offset 0
 1499 0054 7047     		bx	lr
 1500              	.L13:
 1501 0056 00BF     		.align	2
 1502              	.L12:
 1503 0058 43082184 		.word	-2078209981
 1504              		.cfi_endproc
 1505              	.LFE2:
 1507              		.section	.text._linear_combination,"ax",%progbits
 1508              		.align	1
 1509              		.global	_linear_combination
 1510              		.syntax unified
 1511              		.thumb
 1512              		.thumb_func
 1513              		.fpu softvfp
 1515              	_linear_combination:
 1516              	.LFB3:
  55:MAYO.c        **** 
  56:MAYO.c        **** void _linear_combination(const unsigned char* vecs, const unsigned char* coeffs, int len, unsigned 
 1517              		.loc 1 56 110
 1518              		.cfi_startproc
 1519              		@ args = 0, pretend = 0, frame = 152
 1520              		@ frame_needed = 1, uses_anonymous_args = 0
 1521 0000 80B5     		push	{r7, lr}
 1522              	.LCFI17:
 1523              		.cfi_def_cfa_offset 8
 1524              		.cfi_offset 7, -8
 1525              		.cfi_offset 14, -4
 1526 0002 A6B0     		sub	sp, sp, #152
 1527              	.LCFI18:
 1528              		.cfi_def_cfa_offset 160
 1529 0004 00AF     		add	r7, sp, #0
 1530              	.LCFI19:
 1531              		.cfi_def_cfa_register 7
 1532 0006 F860     		str	r0, [r7, #12]
 1533 0008 B960     		str	r1, [r7, #8]
 1534 000a 7A60     		str	r2, [r7, #4]
 1535 000c 3B60     		str	r3, [r7]
  57:MAYO.c        **** 	uint32_t accumulators[M] = {0};
 1536              		.loc 1 57 11
 1537 000e 07F11003 		add	r3, r7, #16
 1538 0012 7822     		movs	r2, #120
 1539 0014 0021     		movs	r1, #0
 1540 0016 1846     		mov	r0, r3
 1541 0018 FFF7FEFF 		bl	memset
 1542              	.LBB5:
  58:MAYO.c        **** 
  59:MAYO.c        ****     // i runs through the entries of coeffs
  60:MAYO.c        ****     for (int i = 0; i < len; ++i)
 1543              		.loc 1 60 14
 1544 001c 0023     		movs	r3, #0
 1545 001e C7F89430 		str	r3, [r7, #148]
 1546              		.loc 1 60 5
 1547 0022 5AE0     		b	.L15
 1548              	.L22:
  61:MAYO.c        **** 	{ 
  62:MAYO.c        ****         // j runs through the  of vecs which contains the coefficients of the different equations
  63:MAYO.c        ****         // each entry in coeefs gets multiplied with m entries in vecs, the intermediate result is 
  64:MAYO.c        **** 
  65:MAYO.c        **** 		if(trigger == 1 && i==0)
 1549              		.loc 1 65 14
 1550 0024 444B     		ldr	r3, .L25
 1551 0026 1B68     		ldr	r3, [r3]
 1552              		.loc 1 65 5
 1553 0028 012B     		cmp	r3, #1
 1554 002a 12D1     		bne	.L16
 1555              		.loc 1 65 19 discriminator 1
 1556 002c D7F89430 		ldr	r3, [r7, #148]
 1557 0030 002B     		cmp	r3, #0
 1558 0032 0ED1     		bne	.L16
 1559              	.LBB6:
  66:MAYO.c        **** 		{
  67:MAYO.c        **** 			char c = 'A';
 1560              		.loc 1 67 9
 1561 0034 4123     		movs	r3, #65
 1562 0036 87F89330 		strb	r3, [r7, #147]
  68:MAYO.c        **** 				// stall until ready to trace 
  69:MAYO.c        **** 			while ((c != 'g'))
 1563              		.loc 1 69 10
 1564 003a 04E0     		b	.L17
 1565              	.L18:
  70:MAYO.c        **** 			{
  71:MAYO.c        **** 				c = getch();
 1566              		.loc 1 71 9
 1567 003c FFF7FEFF 		bl	getch
 1568 0040 0346     		mov	r3, r0
 1569 0042 87F89330 		strb	r3, [r7, #147]
 1570              	.L17:
  69:MAYO.c        **** 			{
 1571              		.loc 1 69 10
 1572 0046 97F89330 		ldrb	r3, [r7, #147]	@ zero_extendqisi2
 1573 004a 672B     		cmp	r3, #103
 1574 004c F6D1     		bne	.L18
  72:MAYO.c        **** 			}
  73:MAYO.c        **** 			trigger_high();
 1575              		.loc 1 73 4
 1576 004e FFF7FEFF 		bl	trigger_high
 1577              	.L16:
 1578              	.LBE6:
 1579              	.LBB7:
  74:MAYO.c        **** 		}
  75:MAYO.c        **** 		for(int j=0; j< M; j++){
 1580              		.loc 1 75 11
 1581 0052 0023     		movs	r3, #0
 1582 0054 C7F88C30 		str	r3, [r7, #140]
 1583              		.loc 1 75 3
 1584 0058 29E0     		b	.L19
 1585              	.L20:
  76:MAYO.c        **** 			accumulators[j] += ((uint32_t) vecs[i*M + j]) * ((uint32_t) coeffs[i]);
 1586              		.loc 1 76 20 discriminator 3
 1587 005a D7F88C30 		ldr	r3, [r7, #140]
 1588 005e 9B00     		lsls	r3, r3, #2
 1589 0060 9833     		adds	r3, r3, #152
 1590 0062 3B44     		add	r3, r3, r7
 1591 0064 53F8881C 		ldr	r1, [r3, #-136]
 1592              		.loc 1 76 41 discriminator 3
 1593 0068 D7F89420 		ldr	r2, [r7, #148]
 1594 006c 1346     		mov	r3, r2
 1595 006e 1B01     		lsls	r3, r3, #4
 1596 0070 9B1A     		subs	r3, r3, r2
 1597 0072 5B00     		lsls	r3, r3, #1
 1598 0074 1A46     		mov	r2, r3
 1599              		.loc 1 76 44 discriminator 3
 1600 0076 D7F88C30 		ldr	r3, [r7, #140]
 1601 007a 1344     		add	r3, r3, r2
 1602 007c 1A46     		mov	r2, r3
 1603              		.loc 1 76 39 discriminator 3
 1604 007e FB68     		ldr	r3, [r7, #12]
 1605 0080 1344     		add	r3, r3, r2
 1606 0082 1B78     		ldrb	r3, [r3]	@ zero_extendqisi2
 1607              		.loc 1 76 24 discriminator 3
 1608 0084 1846     		mov	r0, r3
 1609              		.loc 1 76 70 discriminator 3
 1610 0086 D7F89430 		ldr	r3, [r7, #148]
 1611 008a BA68     		ldr	r2, [r7, #8]
 1612 008c 1344     		add	r3, r3, r2
 1613 008e 1B78     		ldrb	r3, [r3]	@ zero_extendqisi2
 1614              		.loc 1 76 50 discriminator 3
 1615 0090 00FB03F3 		mul	r3, r0, r3
 1616              		.loc 1 76 20 discriminator 3
 1617 0094 CA18     		adds	r2, r1, r3
 1618 0096 D7F88C30 		ldr	r3, [r7, #140]
 1619 009a 9B00     		lsls	r3, r3, #2
 1620 009c 9833     		adds	r3, r3, #152
 1621 009e 3B44     		add	r3, r3, r7
 1622 00a0 43F8882C 		str	r2, [r3, #-136]
  75:MAYO.c        **** 			accumulators[j] += ((uint32_t) vecs[i*M + j]) * ((uint32_t) coeffs[i]);
 1623              		.loc 1 75 23 discriminator 3
 1624 00a4 D7F88C30 		ldr	r3, [r7, #140]
 1625 00a8 0133     		adds	r3, r3, #1
 1626 00aa C7F88C30 		str	r3, [r7, #140]
 1627              	.L19:
  75:MAYO.c        **** 			accumulators[j] += ((uint32_t) vecs[i*M + j]) * ((uint32_t) coeffs[i]);
 1628              		.loc 1 75 3 discriminator 1
 1629 00ae D7F88C30 		ldr	r3, [r7, #140]
 1630 00b2 1D2B     		cmp	r3, #29
 1631 00b4 D1DD     		ble	.L20
 1632              	.LBE7:
  77:MAYO.c        **** 		} 
  78:MAYO.c        **** 		if(trigger == 1 && i==0)
 1633              		.loc 1 78 14
 1634 00b6 204B     		ldr	r3, .L25
 1635 00b8 1B68     		ldr	r3, [r3]
 1636              		.loc 1 78 5
 1637 00ba 012B     		cmp	r3, #1
 1638 00bc 08D1     		bne	.L21
 1639              		.loc 1 78 19 discriminator 1
 1640 00be D7F89430 		ldr	r3, [r7, #148]
 1641 00c2 002B     		cmp	r3, #0
 1642 00c4 04D1     		bne	.L21
  79:MAYO.c        **** 		{			
  80:MAYO.c        **** 			trigger_low();
 1643              		.loc 1 80 4
 1644 00c6 FFF7FEFF 		bl	trigger_low
  81:MAYO.c        **** 			putch('r');
 1645              		.loc 1 81 4
 1646 00ca 7220     		movs	r0, #114
 1647 00cc FFF7FEFF 		bl	putch
 1648              	.L21:
  60:MAYO.c        **** 	{ 
 1649              		.loc 1 60 30 discriminator 2
 1650 00d0 D7F89430 		ldr	r3, [r7, #148]
 1651 00d4 0133     		adds	r3, r3, #1
 1652 00d6 C7F89430 		str	r3, [r7, #148]
 1653              	.L15:
  60:MAYO.c        **** 	{ 
 1654              		.loc 1 60 5 discriminator 1
 1655 00da D7F89420 		ldr	r2, [r7, #148]
 1656 00de 7B68     		ldr	r3, [r7, #4]
 1657 00e0 9A42     		cmp	r2, r3
 1658 00e2 9FDB     		blt	.L22
 1659              	.LBE5:
 1660              	.LBB8:
  82:MAYO.c        **** 		}
  83:MAYO.c        **** 	}
  84:MAYO.c        **** 
  85:MAYO.c        **** 	for (int i = 0; i < M; ++i)
 1661              		.loc 1 85 11
 1662 00e4 0023     		movs	r3, #0
 1663 00e6 C7F88830 		str	r3, [r7, #136]
 1664              		.loc 1 85 2
 1665 00ea 1CE0     		b	.L23
 1666              	.L24:
  86:MAYO.c        **** 	{
  87:MAYO.c        **** 		out[i] = (unsigned char) (accumulators[i] % PRIME);
 1667              		.loc 1 87 41 discriminator 3
 1668 00ec D7F88830 		ldr	r3, [r7, #136]
 1669 00f0 9B00     		lsls	r3, r3, #2
 1670 00f2 9833     		adds	r3, r3, #152
 1671 00f4 3B44     		add	r3, r3, r7
 1672 00f6 53F8882C 		ldr	r2, [r3, #-136]
 1673              		.loc 1 87 45 discriminator 3
 1674 00fa 104B     		ldr	r3, .L25+4
 1675 00fc A3FB0213 		umull	r1, r3, r3, r2
 1676 0100 D11A     		subs	r1, r2, r3
 1677 0102 4908     		lsrs	r1, r1, #1
 1678 0104 0B44     		add	r3, r3, r1
 1679 0106 1909     		lsrs	r1, r3, #4
 1680 0108 0B46     		mov	r3, r1
 1681 010a 5B01     		lsls	r3, r3, #5
 1682 010c 5B1A     		subs	r3, r3, r1
 1683 010e D11A     		subs	r1, r2, r3
 1684              		.loc 1 87 6 discriminator 3
 1685 0110 D7F88830 		ldr	r3, [r7, #136]
 1686 0114 3A68     		ldr	r2, [r7]
 1687 0116 1344     		add	r3, r3, r2
 1688              		.loc 1 87 12 discriminator 3
 1689 0118 CAB2     		uxtb	r2, r1
 1690              		.loc 1 87 10 discriminator 3
 1691 011a 1A70     		strb	r2, [r3]
  85:MAYO.c        **** 	{
 1692              		.loc 1 85 25 discriminator 3
 1693 011c D7F88830 		ldr	r3, [r7, #136]
 1694 0120 0133     		adds	r3, r3, #1
 1695 0122 C7F88830 		str	r3, [r7, #136]
 1696              	.L23:
  85:MAYO.c        **** 	{
 1697              		.loc 1 85 2 discriminator 1
 1698 0126 D7F88830 		ldr	r3, [r7, #136]
 1699 012a 1D2B     		cmp	r3, #29
 1700 012c DEDD     		ble	.L24
 1701              	.LBE8:
  88:MAYO.c        **** 	}
  89:MAYO.c        **** }
 1702              		.loc 1 89 1
 1703 012e 00BF     		nop
 1704 0130 00BF     		nop
 1705 0132 9837     		adds	r7, r7, #152
 1706              	.LCFI20:
 1707              		.cfi_def_cfa_offset 8
 1708 0134 BD46     		mov	sp, r7
 1709              	.LCFI21:
 1710              		.cfi_def_cfa_register 13
 1711              		@ sp needed
 1712 0136 80BD     		pop	{r7, pc}
 1713              	.L26:
 1714              		.align	2
 1715              	.L25:
 1716 0138 00000000 		.word	trigger
 1717 013c 85104208 		.word	138547333
 1718              		.cfi_endproc
 1719              	.LFE3:
 1721              		.section	.text.computeP2,"ax",%progbits
 1722              		.align	1
 1723              		.global	computeP2
 1724              		.syntax unified
 1725              		.thumb
 1726              		.thumb_func
 1727              		.fpu softvfp
 1729              	computeP2:
 1730              	.LFB4:
  90:MAYO.c        **** 
  91:MAYO.c        **** void computeP2(const unsigned char* oil_space, const unsigned char* P1, unsigned char* P2){
 1731              		.loc 1 91 91
 1732              		.cfi_startproc
 1733              		@ args = 0, pretend = 0, frame = 5344
 1734              		@ frame_needed = 1, uses_anonymous_args = 0
 1735 0000 80B5     		push	{r7, lr}
 1736              	.LCFI22:
 1737              		.cfi_def_cfa_offset 8
 1738              		.cfi_offset 7, -8
 1739              		.cfi_offset 14, -4
 1740 0002 ADF5A75D 		sub	sp, sp, #5344
 1741              	.LCFI23:
 1742              		.cfi_def_cfa_offset 5352
 1743 0006 00AF     		add	r7, sp, #0
 1744              	.LCFI24:
 1745              		.cfi_def_cfa_register 7
 1746 0008 07F59C63 		add	r3, r7, #1248
 1747 000c A3F2D443 		subw	r3, r3, #1236
 1748 0010 1860     		str	r0, [r3]
 1749 0012 07F59C63 		add	r3, r7, #1248
 1750 0016 A3F59B63 		sub	r3, r3, #1240
 1751 001a 1960     		str	r1, [r3]
 1752 001c 07F59C63 		add	r3, r7, #1248
 1753 0020 A3F2DC43 		subw	r3, r3, #1244
 1754 0024 1A60     		str	r2, [r3]
  92:MAYO.c        **** 	// P2 = - O*P1*O^t - O*P1'
  93:MAYO.c        **** 
  94:MAYO.c        **** 	// first compute Temp = P1*O^t + P1'
  95:MAYO.c        **** 	unsigned char temp[M*(N-O)*O] = {0};
 1755              		.loc 1 95 16
 1756 0026 07F5A753 		add	r3, r7, #5344
 1757 002a A3F65C23 		subw	r3, r3, #2652
 1758 002e 0022     		movs	r2, #0
 1759 0030 1A60     		str	r2, [r3]
 1760 0032 0433     		adds	r3, r3, #4
 1761 0034 40F62E22 		movw	r2, #2606
 1762 0038 0021     		movs	r1, #0
 1763 003a 1846     		mov	r0, r3
 1764 003c FFF7FEFF 		bl	memset
  96:MAYO.c        **** 
  97:MAYO.c        **** 	int	p1_counter = 0;
 1765              		.loc 1 97 6
 1766 0040 0023     		movs	r3, #0
 1767 0042 07F5A652 		add	r2, r7, #5312
 1768 0046 02F11C02 		add	r2, r2, #28
 1769 004a 1360     		str	r3, [r2]
 1770              	.LBB9:
  98:MAYO.c        **** 	for (int i = 0; i < N-O; ++i)
 1771              		.loc 1 98 11
 1772 004c 0023     		movs	r3, #0
 1773 004e 07F5A652 		add	r2, r7, #5312
 1774 0052 02F11802 		add	r2, r2, #24
 1775 0056 1360     		str	r3, [r2]
 1776              		.loc 1 98 2
 1777 0058 A8E0     		b	.L28
 1778              	.L32:
 1779              	.LBB10:
  99:MAYO.c        **** 	{
 100:MAYO.c        **** 		// P1*O^t part
 101:MAYO.c        **** 		for (int j = 0; j < O; ++j)
 1780              		.loc 1 101 12
 1781 005a 0023     		movs	r3, #0
 1782 005c 07F5A652 		add	r2, r7, #5312
 1783 0060 02F11402 		add	r2, r2, #20
 1784 0064 1360     		str	r3, [r2]
 1785              		.loc 1 101 3
 1786 0066 7CE0     		b	.L29
 1787              	.L31:
 1788              	.LBB11:
 102:MAYO.c        **** 		{
 103:MAYO.c        **** 			if(j==0) trigger=1;
 1789              		.loc 1 103 6
 1790 0068 07F5A653 		add	r3, r7, #5312
 1791 006c 03F11403 		add	r3, r3, #20
 1792 0070 1B68     		ldr	r3, [r3]
 1793 0072 002B     		cmp	r3, #0
 1794 0074 02D1     		bne	.L30
 1795              		.loc 1 103 20 discriminator 1
 1796 0076 D34B     		ldr	r3, .L46
 1797 0078 0122     		movs	r2, #1
 1798 007a 1A60     		str	r2, [r3]
 1799              	.L30:
 104:MAYO.c        **** 			unsigned char vec[M];
 105:MAYO.c        **** 			_linear_combination(P1 + p1_counter*M, oil_space + (j*(N-O) + i), N-O-i, vec);
 1800              		.loc 1 105 39 discriminator 2
 1801 007c 07F5A653 		add	r3, r7, #5312
 1802 0080 03F11C03 		add	r3, r3, #28
 1803 0084 1A68     		ldr	r2, [r3]
 1804 0086 1346     		mov	r3, r2
 1805 0088 1B01     		lsls	r3, r3, #4
 1806 008a 9B1A     		subs	r3, r3, r2
 1807 008c 5B00     		lsls	r3, r3, #1
 1808 008e 1A46     		mov	r2, r3
 1809              		.loc 1 105 4 discriminator 2
 1810 0090 07F59C63 		add	r3, r7, #1248
 1811 0094 A3F59B63 		sub	r3, r3, #1240
 1812 0098 1B68     		ldr	r3, [r3]
 1813 009a 9818     		adds	r0, r3, r2
 1814              		.loc 1 105 57 discriminator 2
 1815 009c 07F5A653 		add	r3, r7, #5312
 1816 00a0 03F11403 		add	r3, r3, #20
 1817 00a4 1A68     		ldr	r2, [r3]
 1818 00a6 1346     		mov	r3, r2
 1819 00a8 DB00     		lsls	r3, r3, #3
 1820 00aa 9B1A     		subs	r3, r3, r2
 1821 00ac 9B00     		lsls	r3, r3, #2
 1822 00ae 1A44     		add	r2, r2, r3
 1823              		.loc 1 105 64 discriminator 2
 1824 00b0 07F5A653 		add	r3, r7, #5312
 1825 00b4 03F11803 		add	r3, r3, #24
 1826 00b8 1B68     		ldr	r3, [r3]
 1827 00ba 1344     		add	r3, r3, r2
 1828 00bc 1A46     		mov	r2, r3
 1829              		.loc 1 105 4 discriminator 2
 1830 00be 07F59C63 		add	r3, r7, #1248
 1831 00c2 A3F2D443 		subw	r3, r3, #1236
 1832 00c6 1B68     		ldr	r3, [r3]
 1833 00c8 9918     		adds	r1, r3, r2
 1834 00ca 07F5A653 		add	r3, r7, #5312
 1835 00ce 03F11803 		add	r3, r3, #24
 1836 00d2 1B68     		ldr	r3, [r3]
 1837 00d4 C3F11D02 		rsb	r2, r3, #29
 1838 00d8 07F14003 		add	r3, r7, #64
 1839 00dc 103B     		subs	r3, r3, #16
 1840 00de FFF7FEFF 		bl	_linear_combination
 106:MAYO.c        **** 			add_vectors(temp + (i*O + j)*M, vec,temp + (i*O + j)*M);
 1841              		.loc 1 106 25 discriminator 2
 1842 00e2 07F5A653 		add	r3, r7, #5312
 1843 00e6 03F11803 		add	r3, r3, #24
 1844 00ea 1A68     		ldr	r2, [r3]
 1845 00ec 1346     		mov	r3, r2
 1846 00ee 5B00     		lsls	r3, r3, #1
 1847 00f0 1A44     		add	r2, r2, r3
 1848              		.loc 1 106 28 discriminator 2
 1849 00f2 07F5A653 		add	r3, r7, #5312
 1850 00f6 03F11403 		add	r3, r3, #20
 1851 00fa 1B68     		ldr	r3, [r3]
 1852 00fc 1A44     		add	r2, r2, r3
 1853              		.loc 1 106 32 discriminator 2
 1854 00fe 1346     		mov	r3, r2
 1855 0100 1B01     		lsls	r3, r3, #4
 1856 0102 9B1A     		subs	r3, r3, r2
 1857 0104 5B00     		lsls	r3, r3, #1
 1858 0106 1A46     		mov	r2, r3
 1859              		.loc 1 106 4 discriminator 2
 1860 0108 07F68423 		addw	r3, r7, #2692
 1861 010c 9818     		adds	r0, r3, r2
 1862              		.loc 1 106 49 discriminator 2
 1863 010e 07F5A653 		add	r3, r7, #5312
 1864 0112 03F11803 		add	r3, r3, #24
 1865 0116 1A68     		ldr	r2, [r3]
 1866 0118 1346     		mov	r3, r2
 1867 011a 5B00     		lsls	r3, r3, #1
 1868 011c 1A44     		add	r2, r2, r3
 1869              		.loc 1 106 52 discriminator 2
 1870 011e 07F5A653 		add	r3, r7, #5312
 1871 0122 03F11403 		add	r3, r3, #20
 1872 0126 1B68     		ldr	r3, [r3]
 1873 0128 1A44     		add	r2, r2, r3
 1874              		.loc 1 106 56 discriminator 2
 1875 012a 1346     		mov	r3, r2
 1876 012c 1B01     		lsls	r3, r3, #4
 1877 012e 9B1A     		subs	r3, r3, r2
 1878 0130 5B00     		lsls	r3, r3, #1
 1879 0132 1A46     		mov	r2, r3
 1880              		.loc 1 106 4 discriminator 2
 1881 0134 07F68423 		addw	r3, r7, #2692
 1882 0138 1A44     		add	r2, r2, r3
 1883 013a 07F14003 		add	r3, r7, #64
 1884 013e 103B     		subs	r3, r3, #16
 1885 0140 1946     		mov	r1, r3
 1886 0142 FFF7FEFF 		bl	add_vectors
 107:MAYO.c        **** 			trigger = 0;
 1887              		.loc 1 107 12 discriminator 2
 1888 0146 9F4B     		ldr	r3, .L46
 1889 0148 0022     		movs	r2, #0
 1890 014a 1A60     		str	r2, [r3]
 1891              	.LBE11:
 101:MAYO.c        **** 		{
 1892              		.loc 1 101 26 discriminator 2
 1893 014c 07F5A653 		add	r3, r7, #5312
 1894 0150 03F11403 		add	r3, r3, #20
 1895 0154 1B68     		ldr	r3, [r3]
 1896 0156 0133     		adds	r3, r3, #1
 1897 0158 07F5A652 		add	r2, r7, #5312
 1898 015c 02F11402 		add	r2, r2, #20
 1899 0160 1360     		str	r3, [r2]
 1900              	.L29:
 101:MAYO.c        **** 		{
 1901              		.loc 1 101 3 discriminator 1
 1902 0162 07F5A653 		add	r3, r7, #5312
 1903 0166 03F11403 		add	r3, r3, #20
 1904 016a 1B68     		ldr	r3, [r3]
 1905 016c 022B     		cmp	r3, #2
 1906 016e 7FF77BAF 		ble	.L31
 1907              	.LBE10:
 108:MAYO.c        **** 		}
 109:MAYO.c        **** 		p1_counter += (N-O-i);
 1908              		.loc 1 109 21 discriminator 2
 1909 0172 07F5A653 		add	r3, r7, #5312
 1910 0176 03F11803 		add	r3, r3, #24
 1911 017a 1B68     		ldr	r3, [r3]
 1912 017c C3F11D03 		rsb	r3, r3, #29
 1913              		.loc 1 109 14 discriminator 2
 1914 0180 07F5A652 		add	r2, r7, #5312
 1915 0184 02F11C02 		add	r2, r2, #28
 1916 0188 1268     		ldr	r2, [r2]
 1917 018a 1344     		add	r3, r3, r2
 1918 018c 07F5A652 		add	r2, r7, #5312
 1919 0190 02F11C02 		add	r2, r2, #28
 1920 0194 1360     		str	r3, [r2]
  98:MAYO.c        **** 	{
 1921              		.loc 1 98 27 discriminator 2
 1922 0196 07F5A653 		add	r3, r7, #5312
 1923 019a 03F11803 		add	r3, r3, #24
 1924 019e 1B68     		ldr	r3, [r3]
 1925 01a0 0133     		adds	r3, r3, #1
 1926 01a2 07F5A652 		add	r2, r7, #5312
 1927 01a6 02F11802 		add	r2, r2, #24
 1928 01aa 1360     		str	r3, [r2]
 1929              	.L28:
  98:MAYO.c        **** 	{
 1930              		.loc 1 98 2 discriminator 1
 1931 01ac 07F5A653 		add	r3, r7, #5312
 1932 01b0 03F11803 		add	r3, r3, #24
 1933 01b4 1B68     		ldr	r3, [r3]
 1934 01b6 1C2B     		cmp	r3, #28
 1935 01b8 7FF74FAF 		ble	.L32
 1936              	.LBE9:
 1937              	.LBB12:
 110:MAYO.c        **** 	}
 111:MAYO.c        **** 
 112:MAYO.c        **** 	for (int i = 0; i < N-O; ++i)
 1938              		.loc 1 112 11
 1939 01bc 0023     		movs	r3, #0
 1940 01be 07F5A652 		add	r2, r7, #5312
 1941 01c2 02F11002 		add	r2, r2, #16
 1942 01c6 1360     		str	r3, [r2]
 1943              		.loc 1 112 2
 1944 01c8 6DE0     		b	.L33
 1945              	.L36:
 1946              	.LBB13:
 113:MAYO.c        **** 	{
 114:MAYO.c        **** 		// P1' part
 115:MAYO.c        **** 		for (int j = 0; j < O; j++)
 1947              		.loc 1 115 12
 1948 01ca 0023     		movs	r3, #0
 1949 01cc 07F5A652 		add	r2, r7, #5312
 1950 01d0 02F10C02 		add	r2, r2, #12
 1951 01d4 1360     		str	r3, [r2]
 1952              		.loc 1 115 3
 1953 01d6 54E0     		b	.L34
 1954              	.L35:
 116:MAYO.c        **** 		{
 117:MAYO.c        **** 			add_vectors(temp + (i*O + j)*M, P1 + p1_counter*M, temp + (i*O + j)*M);
 1955              		.loc 1 117 25 discriminator 3
 1956 01d8 07F5A653 		add	r3, r7, #5312
 1957 01dc 03F11003 		add	r3, r3, #16
 1958 01e0 1A68     		ldr	r2, [r3]
 1959 01e2 1346     		mov	r3, r2
 1960 01e4 5B00     		lsls	r3, r3, #1
 1961 01e6 1A44     		add	r2, r2, r3
 1962              		.loc 1 117 28 discriminator 3
 1963 01e8 07F5A653 		add	r3, r7, #5312
 1964 01ec 03F10C03 		add	r3, r3, #12
 1965 01f0 1B68     		ldr	r3, [r3]
 1966 01f2 1A44     		add	r2, r2, r3
 1967              		.loc 1 117 32 discriminator 3
 1968 01f4 1346     		mov	r3, r2
 1969 01f6 1B01     		lsls	r3, r3, #4
 1970 01f8 9B1A     		subs	r3, r3, r2
 1971 01fa 5B00     		lsls	r3, r3, #1
 1972 01fc 1A46     		mov	r2, r3
 1973              		.loc 1 117 4 discriminator 3
 1974 01fe 07F68423 		addw	r3, r7, #2692
 1975 0202 9818     		adds	r0, r3, r2
 1976              		.loc 1 117 51 discriminator 3
 1977 0204 07F5A653 		add	r3, r7, #5312
 1978 0208 03F11C03 		add	r3, r3, #28
 1979 020c 1A68     		ldr	r2, [r3]
 1980 020e 1346     		mov	r3, r2
 1981 0210 1B01     		lsls	r3, r3, #4
 1982 0212 9B1A     		subs	r3, r3, r2
 1983 0214 5B00     		lsls	r3, r3, #1
 1984 0216 1A46     		mov	r2, r3
 1985              		.loc 1 117 4 discriminator 3
 1986 0218 07F59C63 		add	r3, r7, #1248
 1987 021c A3F59B63 		sub	r3, r3, #1240
 1988 0220 1B68     		ldr	r3, [r3]
 1989 0222 9918     		adds	r1, r3, r2
 1990              		.loc 1 117 64 discriminator 3
 1991 0224 07F5A653 		add	r3, r7, #5312
 1992 0228 03F11003 		add	r3, r3, #16
 1993 022c 1A68     		ldr	r2, [r3]
 1994 022e 1346     		mov	r3, r2
 1995 0230 5B00     		lsls	r3, r3, #1
 1996 0232 1A44     		add	r2, r2, r3
 1997              		.loc 1 117 67 discriminator 3
 1998 0234 07F5A653 		add	r3, r7, #5312
 1999 0238 03F10C03 		add	r3, r3, #12
 2000 023c 1B68     		ldr	r3, [r3]
 2001 023e 1A44     		add	r2, r2, r3
 2002              		.loc 1 117 71 discriminator 3
 2003 0240 1346     		mov	r3, r2
 2004 0242 1B01     		lsls	r3, r3, #4
 2005 0244 9B1A     		subs	r3, r3, r2
 2006 0246 5B00     		lsls	r3, r3, #1
 2007 0248 1A46     		mov	r2, r3
 2008              		.loc 1 117 4 discriminator 3
 2009 024a 07F68423 		addw	r3, r7, #2692
 2010 024e 1344     		add	r3, r3, r2
 2011 0250 1A46     		mov	r2, r3
 2012 0252 FFF7FEFF 		bl	add_vectors
 118:MAYO.c        **** 			p1_counter ++;
 2013              		.loc 1 118 15 discriminator 3
 2014 0256 07F5A653 		add	r3, r7, #5312
 2015 025a 03F11C03 		add	r3, r3, #28
 2016 025e 1B68     		ldr	r3, [r3]
 2017 0260 0133     		adds	r3, r3, #1
 2018 0262 07F5A652 		add	r2, r7, #5312
 2019 0266 02F11C02 		add	r2, r2, #28
 2020 026a 1360     		str	r3, [r2]
 115:MAYO.c        **** 		{
 2021              		.loc 1 115 27 discriminator 3
 2022 026c 07F5A653 		add	r3, r7, #5312
 2023 0270 03F10C03 		add	r3, r3, #12
 2024 0274 1B68     		ldr	r3, [r3]
 2025 0276 0133     		adds	r3, r3, #1
 2026 0278 07F5A652 		add	r2, r7, #5312
 2027 027c 02F10C02 		add	r2, r2, #12
 2028 0280 1360     		str	r3, [r2]
 2029              	.L34:
 115:MAYO.c        **** 		{
 2030              		.loc 1 115 3 discriminator 1
 2031 0282 07F5A653 		add	r3, r7, #5312
 2032 0286 03F10C03 		add	r3, r3, #12
 2033 028a 1B68     		ldr	r3, [r3]
 2034 028c 022B     		cmp	r3, #2
 2035 028e A3DD     		ble	.L35
 2036              	.LBE13:
 112:MAYO.c        **** 	{
 2037              		.loc 1 112 27 discriminator 2
 2038 0290 07F5A653 		add	r3, r7, #5312
 2039 0294 03F11003 		add	r3, r3, #16
 2040 0298 1B68     		ldr	r3, [r3]
 2041 029a 0133     		adds	r3, r3, #1
 2042 029c 07F5A652 		add	r2, r7, #5312
 2043 02a0 02F11002 		add	r2, r2, #16
 2044 02a4 1360     		str	r3, [r2]
 2045              	.L33:
 112:MAYO.c        **** 	{
 2046              		.loc 1 112 2 discriminator 1
 2047 02a6 07F5A653 		add	r3, r7, #5312
 2048 02aa 03F11003 		add	r3, r3, #16
 2049 02ae 1B68     		ldr	r3, [r3]
 2050 02b0 1C2B     		cmp	r3, #28
 2051 02b2 8ADD     		ble	.L36
 2052              	.LBE12:
 119:MAYO.c        **** 		}
 120:MAYO.c        **** 	}
 121:MAYO.c        **** 
 122:MAYO.c        **** 	// permute Temp
 123:MAYO.c        **** 	unsigned char tempt[M*(N-O)*O] = {0};
 2053              		.loc 1 123 16
 2054 02b4 07F59C63 		add	r3, r7, #1248
 2055 02b8 A3F59263 		sub	r3, r3, #1168
 2056 02bc 0022     		movs	r2, #0
 2057 02be 1A60     		str	r2, [r3]
 2058 02c0 0433     		adds	r3, r3, #4
 2059 02c2 40F62E22 		movw	r2, #2606
 2060 02c6 0021     		movs	r1, #0
 2061 02c8 1846     		mov	r0, r3
 2062 02ca FFF7FEFF 		bl	memset
 2063              	.LBB14:
 124:MAYO.c        **** 
 125:MAYO.c        **** 	for (int i = 0; i < O; ++i)
 2064              		.loc 1 125 11
 2065 02ce 0023     		movs	r3, #0
 2066 02d0 07F5A652 		add	r2, r7, #5312
 2067 02d4 02F10802 		add	r2, r2, #8
 2068 02d8 1360     		str	r3, [r2]
 2069              		.loc 1 125 2
 2070 02da 56E0     		b	.L37
 2071              	.L40:
 2072              	.LBB15:
 126:MAYO.c        **** 	{
 127:MAYO.c        **** 		for(int j=0; j< N-O; j++){
 2073              		.loc 1 127 11
 2074 02dc 0023     		movs	r3, #0
 2075 02de 07F5A652 		add	r2, r7, #5312
 2076 02e2 02F10402 		add	r2, r2, #4
 2077 02e6 1360     		str	r3, [r2]
 2078              		.loc 1 127 3
 2079 02e8 3DE0     		b	.L38
 2080              	.L39:
 128:MAYO.c        **** 			memcpy(tempt + ((i*(N-O) + j)*M), temp + ((j*O+i)*M), M);
 2081              		.loc 1 128 22 discriminator 3
 2082 02ea 07F5A653 		add	r3, r7, #5312
 2083 02ee 03F10803 		add	r3, r3, #8
 2084 02f2 1A68     		ldr	r2, [r3]
 2085 02f4 1346     		mov	r3, r2
 2086 02f6 DB00     		lsls	r3, r3, #3
 2087 02f8 9B1A     		subs	r3, r3, r2
 2088 02fa 9B00     		lsls	r3, r3, #2
 2089 02fc 1A44     		add	r2, r2, r3
 2090              		.loc 1 128 29 discriminator 3
 2091 02fe 07F5A653 		add	r3, r7, #5312
 2092 0302 03F10403 		add	r3, r3, #4
 2093 0306 1B68     		ldr	r3, [r3]
 2094 0308 1A44     		add	r2, r2, r3
 2095              		.loc 1 128 33 discriminator 3
 2096 030a 1346     		mov	r3, r2
 2097 030c 1B01     		lsls	r3, r3, #4
 2098 030e 9B1A     		subs	r3, r3, r2
 2099 0310 5B00     		lsls	r3, r3, #1
 2100 0312 1A46     		mov	r2, r3
 2101              		.loc 1 128 4 discriminator 3
 2102 0314 07F16003 		add	r3, r7, #96
 2103 0318 103B     		subs	r3, r3, #16
 2104 031a 9818     		adds	r0, r3, r2
 2105              		.loc 1 128 48 discriminator 3
 2106 031c 07F5A653 		add	r3, r7, #5312
 2107 0320 03F10403 		add	r3, r3, #4
 2108 0324 1A68     		ldr	r2, [r3]
 2109 0326 1346     		mov	r3, r2
 2110 0328 5B00     		lsls	r3, r3, #1
 2111 032a 1A44     		add	r2, r2, r3
 2112              		.loc 1 128 50 discriminator 3
 2113 032c 07F5A653 		add	r3, r7, #5312
 2114 0330 03F10803 		add	r3, r3, #8
 2115 0334 1B68     		ldr	r3, [r3]
 2116 0336 1A44     		add	r2, r2, r3
 2117              		.loc 1 128 53 discriminator 3
 2118 0338 1346     		mov	r3, r2
 2119 033a 1B01     		lsls	r3, r3, #4
 2120 033c 9B1A     		subs	r3, r3, r2
 2121 033e 5B00     		lsls	r3, r3, #1
 2122 0340 1A46     		mov	r2, r3
 2123              		.loc 1 128 4 discriminator 3
 2124 0342 07F68423 		addw	r3, r7, #2692
 2125 0346 1344     		add	r3, r3, r2
 2126 0348 1E22     		movs	r2, #30
 2127 034a 1946     		mov	r1, r3
 2128 034c FFF7FEFF 		bl	memcpy
 127:MAYO.c        **** 			memcpy(tempt + ((i*(N-O) + j)*M), temp + ((j*O+i)*M), M);
 2129              		.loc 1 127 25 discriminator 3
 2130 0350 07F5A653 		add	r3, r7, #5312
 2131 0354 03F10403 		add	r3, r3, #4
 2132 0358 1B68     		ldr	r3, [r3]
 2133 035a 0133     		adds	r3, r3, #1
 2134 035c 07F5A652 		add	r2, r7, #5312
 2135 0360 02F10402 		add	r2, r2, #4
 2136 0364 1360     		str	r3, [r2]
 2137              	.L38:
 127:MAYO.c        **** 			memcpy(tempt + ((i*(N-O) + j)*M), temp + ((j*O+i)*M), M);
 2138              		.loc 1 127 3 discriminator 1
 2139 0366 07F5A653 		add	r3, r7, #5312
 2140 036a 03F10403 		add	r3, r3, #4
 2141 036e 1B68     		ldr	r3, [r3]
 2142 0370 1C2B     		cmp	r3, #28
 2143 0372 BADD     		ble	.L39
 2144              	.LBE15:
 125:MAYO.c        **** 	{
 2145              		.loc 1 125 25 discriminator 2
 2146 0374 07F5A653 		add	r3, r7, #5312
 2147 0378 03F10803 		add	r3, r3, #8
 2148 037c 1B68     		ldr	r3, [r3]
 2149 037e 0133     		adds	r3, r3, #1
 2150 0380 07F5A652 		add	r2, r7, #5312
 2151 0384 02F10802 		add	r2, r2, #8
 2152 0388 1360     		str	r3, [r2]
 2153              	.L37:
 125:MAYO.c        **** 	{
 2154              		.loc 1 125 2 discriminator 1
 2155 038a 07F5A653 		add	r3, r7, #5312
 2156 038e 03F10803 		add	r3, r3, #8
 2157 0392 1B68     		ldr	r3, [r3]
 2158 0394 022B     		cmp	r3, #2
 2159 0396 A1DD     		ble	.L40
 2160              	.LBE14:
 129:MAYO.c        **** 		}
 130:MAYO.c        **** 	}
 131:MAYO.c        **** 
 132:MAYO.c        **** 	int counter = 0;
 2161              		.loc 1 132 6
 2162 0398 0023     		movs	r3, #0
 2163 039a 07F5A652 		add	r2, r7, #5312
 2164 039e 1360     		str	r3, [r2]
 2165              	.LBB16:
 133:MAYO.c        **** 	// compute O*Temp;
 134:MAYO.c        **** 	for (int i = 0; i < O; ++i)
 2166              		.loc 1 134 11
 2167 03a0 0023     		movs	r3, #0
 2168 03a2 07F5A552 		add	r2, r7, #5280
 2169 03a6 02F11C02 		add	r2, r2, #28
 2170 03aa 1360     		str	r3, [r2]
 2171              		.loc 1 134 2
 2172 03ac C3E0     		b	.L41
 2173              	.L45:
 2174              	.LBB17:
 135:MAYO.c        **** 	{
 136:MAYO.c        **** 		for (int j = i; j < O; ++j)
 2175              		.loc 1 136 12
 2176 03ae 07F5A553 		add	r3, r7, #5280
 2177 03b2 03F11C03 		add	r3, r3, #28
 2178 03b6 1B68     		ldr	r3, [r3]
 2179 03b8 07F5A552 		add	r2, r7, #5280
 2180 03bc 02F11802 		add	r2, r2, #24
 2181 03c0 1360     		str	r3, [r2]
 2182              		.loc 1 136 3
 2183 03c2 A5E0     		b	.L42
 2184              	.L47:
 2185              		.align	2
 2186              	.L46:
 2187 03c4 00000000 		.word	trigger
 2188              	.L44:
 137:MAYO.c        **** 		{
 138:MAYO.c        **** 			_linear_combination(tempt + (j*(N-O))*M, oil_space + i*(N-O), N-O, P2 + counter*M);
 2189              		.loc 1 138 41
 2190 03c8 07F5A553 		add	r3, r7, #5280
 2191 03cc 03F11803 		add	r3, r3, #24
 2192 03d0 1B68     		ldr	r3, [r3]
 2193 03d2 40F26632 		movw	r2, #870
 2194 03d6 02FB03F3 		mul	r3, r2, r3
 2195 03da 1A46     		mov	r2, r3
 2196              		.loc 1 138 4
 2197 03dc 07F16003 		add	r3, r7, #96
 2198 03e0 103B     		subs	r3, r3, #16
 2199 03e2 9818     		adds	r0, r3, r2
 2200              		.loc 1 138 58
 2201 03e4 07F5A553 		add	r3, r7, #5280
 2202 03e8 03F11C03 		add	r3, r3, #28
 2203 03ec 1A68     		ldr	r2, [r3]
 2204 03ee 1346     		mov	r3, r2
 2205 03f0 DB00     		lsls	r3, r3, #3
 2206 03f2 9B1A     		subs	r3, r3, r2
 2207 03f4 9B00     		lsls	r3, r3, #2
 2208 03f6 1344     		add	r3, r3, r2
 2209 03f8 1A46     		mov	r2, r3
 2210              		.loc 1 138 4
 2211 03fa 07F59C63 		add	r3, r7, #1248
 2212 03fe A3F2D443 		subw	r3, r3, #1236
 2213 0402 1B68     		ldr	r3, [r3]
 2214 0404 9918     		adds	r1, r3, r2
 2215              		.loc 1 138 83
 2216 0406 07F5A653 		add	r3, r7, #5312
 2217 040a 1A68     		ldr	r2, [r3]
 2218 040c 1346     		mov	r3, r2
 2219 040e 1B01     		lsls	r3, r3, #4
 2220 0410 9B1A     		subs	r3, r3, r2
 2221 0412 5B00     		lsls	r3, r3, #1
 2222 0414 1A46     		mov	r2, r3
 2223              		.loc 1 138 4
 2224 0416 07F59C63 		add	r3, r7, #1248
 2225 041a A3F2DC43 		subw	r3, r3, #1244
 2226 041e 1B68     		ldr	r3, [r3]
 2227 0420 1344     		add	r3, r3, r2
 2228 0422 1D22     		movs	r2, #29
 2229 0424 FFF7FEFF 		bl	_linear_combination
 139:MAYO.c        **** 
 140:MAYO.c        **** 			if(j!= i){
 2230              		.loc 1 140 6
 2231 0428 07F5A553 		add	r3, r7, #5280
 2232 042c 03F11803 		add	r3, r3, #24
 2233 0430 1A68     		ldr	r2, [r3]
 2234 0432 07F5A553 		add	r3, r7, #5280
 2235 0436 03F11C03 		add	r3, r3, #28
 2236 043a 1B68     		ldr	r3, [r3]
 2237 043c 9A42     		cmp	r2, r3
 2238 043e 55D0     		beq	.L43
 2239              	.LBB18:
 141:MAYO.c        **** 				unsigned char vec[M] = {0};
 2240              		.loc 1 141 19
 2241 0440 07F59C63 		add	r3, r7, #1248
 2242 0444 A3F59A63 		sub	r3, r3, #1232
 2243 0448 0022     		movs	r2, #0
 2244 044a 1A60     		str	r2, [r3]
 2245 044c 0433     		adds	r3, r3, #4
 2246 044e 0022     		movs	r2, #0
 2247 0450 1A60     		str	r2, [r3]
 2248 0452 5A60     		str	r2, [r3, #4]
 2249 0454 9A60     		str	r2, [r3, #8]
 2250 0456 DA60     		str	r2, [r3, #12]
 2251 0458 1A61     		str	r2, [r3, #16]
 2252 045a 5A61     		str	r2, [r3, #20]
 2253 045c 1A83     		strh	r2, [r3, #24]	@ movhi
 142:MAYO.c        **** 				_linear_combination(tempt + (i*(N-O))*M, oil_space + j*(N-O), N-O, vec);
 2254              		.loc 1 142 42
 2255 045e 07F5A553 		add	r3, r7, #5280
 2256 0462 03F11C03 		add	r3, r3, #28
 2257 0466 1B68     		ldr	r3, [r3]
 2258 0468 40F26632 		movw	r2, #870
 2259 046c 02FB03F3 		mul	r3, r2, r3
 2260 0470 1A46     		mov	r2, r3
 2261              		.loc 1 142 5
 2262 0472 07F16003 		add	r3, r7, #96
 2263 0476 103B     		subs	r3, r3, #16
 2264 0478 9818     		adds	r0, r3, r2
 2265              		.loc 1 142 59
 2266 047a 07F5A553 		add	r3, r7, #5280
 2267 047e 03F11803 		add	r3, r3, #24
 2268 0482 1A68     		ldr	r2, [r3]
 2269 0484 1346     		mov	r3, r2
 2270 0486 DB00     		lsls	r3, r3, #3
 2271 0488 9B1A     		subs	r3, r3, r2
 2272 048a 9B00     		lsls	r3, r3, #2
 2273 048c 1344     		add	r3, r3, r2
 2274 048e 1A46     		mov	r2, r3
 2275              		.loc 1 142 5
 2276 0490 07F59C63 		add	r3, r7, #1248
 2277 0494 A3F2D443 		subw	r3, r3, #1236
 2278 0498 1B68     		ldr	r3, [r3]
 2279 049a 9918     		adds	r1, r3, r2
 2280 049c 07F12003 		add	r3, r7, #32
 2281 04a0 103B     		subs	r3, r3, #16
 2282 04a2 1D22     		movs	r2, #29
 2283 04a4 FFF7FEFF 		bl	_linear_combination
 143:MAYO.c        **** 				add_vectors(P2 + counter*M, vec, P2 + counter*M);
 2284              		.loc 1 143 29
 2285 04a8 07F5A653 		add	r3, r7, #5312
 2286 04ac 1A68     		ldr	r2, [r3]
 2287 04ae 1346     		mov	r3, r2
 2288 04b0 1B01     		lsls	r3, r3, #4
 2289 04b2 9B1A     		subs	r3, r3, r2
 2290 04b4 5B00     		lsls	r3, r3, #1
 2291 04b6 1A46     		mov	r2, r3
 2292              		.loc 1 143 20
 2293 04b8 07F59C63 		add	r3, r7, #1248
 2294 04bc A3F2DC43 		subw	r3, r3, #1244
 2295 04c0 1B68     		ldr	r3, [r3]
 2296 04c2 9818     		adds	r0, r3, r2
 2297              		.loc 1 143 50
 2298 04c4 07F5A653 		add	r3, r7, #5312
 2299 04c8 1A68     		ldr	r2, [r3]
 2300 04ca 1346     		mov	r3, r2
 2301 04cc 1B01     		lsls	r3, r3, #4
 2302 04ce 9B1A     		subs	r3, r3, r2
 2303 04d0 5B00     		lsls	r3, r3, #1
 2304 04d2 1A46     		mov	r2, r3
 2305              		.loc 1 143 5
 2306 04d4 07F59C63 		add	r3, r7, #1248
 2307 04d8 A3F2DC43 		subw	r3, r3, #1244
 2308 04dc 1B68     		ldr	r3, [r3]
 2309 04de 1A44     		add	r2, r2, r3
 2310 04e0 07F12003 		add	r3, r7, #32
 2311 04e4 103B     		subs	r3, r3, #16
 2312 04e6 1946     		mov	r1, r3
 2313 04e8 FFF7FEFF 		bl	add_vectors
 2314              	.L43:
 2315              	.LBE18:
 144:MAYO.c        **** 			}
 145:MAYO.c        **** 			counter ++;
 2316              		.loc 1 145 12 discriminator 2
 2317 04ec 07F5A653 		add	r3, r7, #5312
 2318 04f0 1B68     		ldr	r3, [r3]
 2319 04f2 0133     		adds	r3, r3, #1
 2320 04f4 07F5A652 		add	r2, r7, #5312
 2321 04f8 1360     		str	r3, [r2]
 136:MAYO.c        **** 		{
 2322              		.loc 1 136 26 discriminator 2
 2323 04fa 07F5A553 		add	r3, r7, #5280
 2324 04fe 03F11803 		add	r3, r3, #24
 2325 0502 1B68     		ldr	r3, [r3]
 2326 0504 0133     		adds	r3, r3, #1
 2327 0506 07F5A552 		add	r2, r7, #5280
 2328 050a 02F11802 		add	r2, r2, #24
 2329 050e 1360     		str	r3, [r2]
 2330              	.L42:
 136:MAYO.c        **** 		{
 2331              		.loc 1 136 3 discriminator 1
 2332 0510 07F5A553 		add	r3, r7, #5280
 2333 0514 03F11803 		add	r3, r3, #24
 2334 0518 1B68     		ldr	r3, [r3]
 2335 051a 022B     		cmp	r3, #2
 2336 051c 7FF754AF 		ble	.L44
 2337              	.LBE17:
 134:MAYO.c        **** 	{
 2338              		.loc 1 134 25 discriminator 2
 2339 0520 07F5A553 		add	r3, r7, #5280
 2340 0524 03F11C03 		add	r3, r3, #28
 2341 0528 1B68     		ldr	r3, [r3]
 2342 052a 0133     		adds	r3, r3, #1
 2343 052c 07F5A552 		add	r2, r7, #5280
 2344 0530 02F11C02 		add	r2, r2, #28
 2345 0534 1360     		str	r3, [r2]
 2346              	.L41:
 134:MAYO.c        **** 	{
 2347              		.loc 1 134 2 discriminator 1
 2348 0536 07F5A553 		add	r3, r7, #5280
 2349 053a 03F11C03 		add	r3, r3, #28
 2350 053e 1B68     		ldr	r3, [r3]
 2351 0540 022B     		cmp	r3, #2
 2352 0542 7FF734AF 		ble	.L45
 2353              	.LBE16:
 146:MAYO.c        **** 		}
 147:MAYO.c        **** 	}
 148:MAYO.c        **** 
 149:MAYO.c        **** 	// P2 = -P2
 150:MAYO.c        **** 	negate(P2,P2_BYTES);
 2354              		.loc 1 150 2
 2355 0546 07F59C63 		add	r3, r7, #1248
 2356 054a A3F2DC43 		subw	r3, r3, #1244
 2357 054e B421     		movs	r1, #180
 2358 0550 1868     		ldr	r0, [r3]
 2359 0552 FFF7FEFF 		bl	negate
 151:MAYO.c        **** }
 2360              		.loc 1 151 1
 2361 0556 00BF     		nop
 2362 0558 07F5A757 		add	r7, r7, #5344
 2363              	.LCFI25:
 2364              		.cfi_def_cfa_offset 8
 2365 055c BD46     		mov	sp, r7
 2366              	.LCFI26:
 2367              		.cfi_def_cfa_register 13
 2368              		@ sp needed
 2369 055e 80BD     		pop	{r7, pc}
 2370              		.cfi_endproc
 2371              	.LFE4:
 2373              		.section	.text.compute_bilinear_part,"ax",%progbits
 2374              		.align	1
 2375              		.global	compute_bilinear_part
 2376              		.syntax unified
 2377              		.thumb
 2378              		.thumb_func
 2379              		.fpu softvfp
 2381              	compute_bilinear_part:
 2382              	.LFB5:
 152:MAYO.c        **** 
 153:MAYO.c        **** // computes (P1 + P1^t) O^T + P2 
 154:MAYO.c        **** void compute_bilinear_part(const unsigned char *P1, const unsigned char *oil_space, unsigned char *
 2383              		.loc 1 154 109
 2384              		.cfi_startproc
 2385              		@ args = 0, pretend = 0, frame = 27896
 2386              		@ frame_needed = 1, uses_anonymous_args = 0
 2387 0000 80B5     		push	{r7, lr}
 2388              	.LCFI27:
 2389              		.cfi_def_cfa_offset 8
 2390              		.cfi_offset 7, -8
 2391              		.cfi_offset 14, -4
 2392 0002 ADF5D94D 		sub	sp, sp, #27776
 2393              	.LCFI28:
 2394              		.cfi_def_cfa_offset 27784
 2395 0006 9EB0     		sub	sp, sp, #120
 2396              	.LCFI29:
 2397              		.cfi_def_cfa_offset 27904
 2398 0008 00AF     		add	r7, sp, #0
 2399              	.LCFI30:
 2400              		.cfi_def_cfa_register 7
 2401 000a 07F6F843 		addw	r3, r7, #3320
 2402 000e A3F6EC43 		subw	r3, r3, #3308
 2403 0012 1860     		str	r0, [r3]
 2404 0014 07F6F843 		addw	r3, r7, #3320
 2405 0018 A3F54F63 		sub	r3, r3, #3312
 2406 001c 1960     		str	r1, [r3]
 2407 001e 07F6F843 		addw	r3, r7, #3320
 2408 0022 A3F6F443 		subw	r3, r3, #3316
 2409 0026 1A60     		str	r2, [r3]
 155:MAYO.c        **** 
 156:MAYO.c        **** 	trigger = 0;
 2410              		.loc 1 156 10
 2411 0028 C34B     		ldr	r3, .L68
 2412 002a 0022     		movs	r2, #0
 2413 002c 1A60     		str	r2, [r3]
 157:MAYO.c        ****     char c;
 158:MAYO.c        **** 	unsigned char bilinear_temp[M*(N-O)*O];
 159:MAYO.c        **** 	
 160:MAYO.c        **** 	// compute P1 + P1^T
 161:MAYO.c        **** 	unsigned char P1P1T[M*(N-O)*(N-O)];
 162:MAYO.c        **** 	int counter = 0;
 2414              		.loc 1 162 6
 2415 002e 0023     		movs	r3, #0
 2416 0030 07F5D942 		add	r2, r7, #27776
 2417 0034 02F17402 		add	r2, r2, #116
 2418 0038 1360     		str	r3, [r2]
 2419              	.LBB19:
 163:MAYO.c        **** 	
 164:MAYO.c        **** 	for (int i = 0; i < N-O; ++i)
 2420              		.loc 1 164 11
 2421 003a 0023     		movs	r3, #0
 2422 003c 07F5D942 		add	r2, r7, #27776
 2423 0040 02F17002 		add	r2, r2, #112
 2424 0044 1360     		str	r3, [r2]
 2425              		.loc 1 164 2
 2426 0046 E8E0     		b	.L49
 2427              	.L54:
 2428              	.LBB20:
 165:MAYO.c        **** 	{
 166:MAYO.c        **** 		for (int j = i; j < N-O; ++j)
 2429              		.loc 1 166 12
 2430 0048 07F5D943 		add	r3, r7, #27776
 2431 004c 03F17003 		add	r3, r3, #112
 2432 0050 1B68     		ldr	r3, [r3]
 2433 0052 07F5D942 		add	r2, r7, #27776
 2434 0056 02F16C02 		add	r2, r2, #108
 2435 005a 1360     		str	r3, [r2]
 2436              		.loc 1 166 3
 2437 005c CAE0     		b	.L50
 2438              	.L53:
 167:MAYO.c        **** 		{
 168:MAYO.c        **** 			memcpy(P1P1T + M*(i*(N-O)+j), P1 + (M*counter), M);
 2439              		.loc 1 168 23
 2440 005e 07F5D943 		add	r3, r7, #27776
 2441 0062 03F17003 		add	r3, r3, #112
 2442 0066 1A68     		ldr	r2, [r3]
 2443 0068 1346     		mov	r3, r2
 2444 006a DB00     		lsls	r3, r3, #3
 2445 006c 9B1A     		subs	r3, r3, r2
 2446 006e 9B00     		lsls	r3, r3, #2
 2447 0070 1A44     		add	r2, r2, r3
 2448              		.loc 1 168 29
 2449 0072 07F5D943 		add	r3, r7, #27776
 2450 0076 03F16C03 		add	r3, r3, #108
 2451 007a 1B68     		ldr	r3, [r3]
 2452 007c 1A44     		add	r2, r2, r3
 2453              		.loc 1 168 20
 2454 007e 1346     		mov	r3, r2
 2455 0080 1B01     		lsls	r3, r3, #4
 2456 0082 9B1A     		subs	r3, r3, r2
 2457 0084 5B00     		lsls	r3, r3, #1
 2458 0086 1A46     		mov	r2, r3
 2459              		.loc 1 168 4
 2460 0088 07F17803 		add	r3, r7, #120
 2461 008c 683B     		subs	r3, r3, #104
 2462 008e 9818     		adds	r0, r3, r2
 2463              		.loc 1 168 41
 2464 0090 07F5D943 		add	r3, r7, #27776
 2465 0094 03F17403 		add	r3, r3, #116
 2466 0098 1A68     		ldr	r2, [r3]
 2467 009a 1346     		mov	r3, r2
 2468 009c 1B01     		lsls	r3, r3, #4
 2469 009e 9B1A     		subs	r3, r3, r2
 2470 00a0 5B00     		lsls	r3, r3, #1
 2471 00a2 1A46     		mov	r2, r3
 2472              		.loc 1 168 37
 2473 00a4 07F6F843 		addw	r3, r7, #3320
 2474 00a8 A3F6EC43 		subw	r3, r3, #3308
 2475 00ac 1B68     		ldr	r3, [r3]
 2476 00ae 1344     		add	r3, r3, r2
 2477              		.loc 1 168 4
 2478 00b0 1E22     		movs	r2, #30
 2479 00b2 1946     		mov	r1, r3
 2480 00b4 FFF7FEFF 		bl	memcpy
 169:MAYO.c        **** 			
 170:MAYO.c        **** 			if(j == i){ 
 2481              		.loc 1 170 6
 2482 00b8 07F5D943 		add	r3, r7, #27776
 2483 00bc 03F16C03 		add	r3, r3, #108
 2484 00c0 1A68     		ldr	r2, [r3]
 2485 00c2 07F5D943 		add	r3, r7, #27776
 2486 00c6 03F17003 		add	r3, r3, #112
 2487 00ca 1B68     		ldr	r3, [r3]
 2488 00cc 9A42     		cmp	r2, r3
 2489 00ce 4ED1     		bne	.L51
 171:MAYO.c        **** 				// mutiply by 2
 172:MAYO.c        **** 				add_vectors(P1P1T + M*(i*(N-O)+j),P1P1T + M*(i*(N-O)+j),P1P1T + M*(i*(N-O)+j));
 2490              		.loc 1 172 29
 2491 00d0 07F5D943 		add	r3, r7, #27776
 2492 00d4 03F17003 		add	r3, r3, #112
 2493 00d8 1A68     		ldr	r2, [r3]
 2494 00da 1346     		mov	r3, r2
 2495 00dc DB00     		lsls	r3, r3, #3
 2496 00de 9B1A     		subs	r3, r3, r2
 2497 00e0 9B00     		lsls	r3, r3, #2
 2498 00e2 1A44     		add	r2, r2, r3
 2499              		.loc 1 172 35
 2500 00e4 07F5D943 		add	r3, r7, #27776
 2501 00e8 03F16C03 		add	r3, r3, #108
 2502 00ec 1B68     		ldr	r3, [r3]
 2503 00ee 1A44     		add	r2, r2, r3
 2504              		.loc 1 172 26
 2505 00f0 1346     		mov	r3, r2
 2506 00f2 1B01     		lsls	r3, r3, #4
 2507 00f4 9B1A     		subs	r3, r3, r2
 2508 00f6 5B00     		lsls	r3, r3, #1
 2509 00f8 1A46     		mov	r2, r3
 2510              		.loc 1 172 5
 2511 00fa 07F17803 		add	r3, r7, #120
 2512 00fe 683B     		subs	r3, r3, #104
 2513 0100 9818     		adds	r0, r3, r2
 2514              		.loc 1 172 51
 2515 0102 07F5D943 		add	r3, r7, #27776
 2516 0106 03F17003 		add	r3, r3, #112
 2517 010a 1A68     		ldr	r2, [r3]
 2518 010c 1346     		mov	r3, r2
 2519 010e DB00     		lsls	r3, r3, #3
 2520 0110 9B1A     		subs	r3, r3, r2
 2521 0112 9B00     		lsls	r3, r3, #2
 2522 0114 1A44     		add	r2, r2, r3
 2523              		.loc 1 172 57
 2524 0116 07F5D943 		add	r3, r7, #27776
 2525 011a 03F16C03 		add	r3, r3, #108
 2526 011e 1B68     		ldr	r3, [r3]
 2527 0120 1A44     		add	r2, r2, r3
 2528              		.loc 1 172 48
 2529 0122 1346     		mov	r3, r2
 2530 0124 1B01     		lsls	r3, r3, #4
 2531 0126 9B1A     		subs	r3, r3, r2
 2532 0128 5B00     		lsls	r3, r3, #1
 2533 012a 1A46     		mov	r2, r3
 2534              		.loc 1 172 5
 2535 012c 07F17803 		add	r3, r7, #120
 2536 0130 683B     		subs	r3, r3, #104
 2537 0132 9918     		adds	r1, r3, r2
 2538              		.loc 1 172 73
 2539 0134 07F5D943 		add	r3, r7, #27776
 2540 0138 03F17003 		add	r3, r3, #112
 2541 013c 1A68     		ldr	r2, [r3]
 2542 013e 1346     		mov	r3, r2
 2543 0140 DB00     		lsls	r3, r3, #3
 2544 0142 9B1A     		subs	r3, r3, r2
 2545 0144 9B00     		lsls	r3, r3, #2
 2546 0146 1A44     		add	r2, r2, r3
 2547              		.loc 1 172 79
 2548 0148 07F5D943 		add	r3, r7, #27776
 2549 014c 03F16C03 		add	r3, r3, #108
 2550 0150 1B68     		ldr	r3, [r3]
 2551 0152 1A44     		add	r2, r2, r3
 2552              		.loc 1 172 70
 2553 0154 1346     		mov	r3, r2
 2554 0156 1B01     		lsls	r3, r3, #4
 2555 0158 9B1A     		subs	r3, r3, r2
 2556 015a 5B00     		lsls	r3, r3, #1
 2557 015c 1A46     		mov	r2, r3
 2558              		.loc 1 172 5
 2559 015e 07F17803 		add	r3, r7, #120
 2560 0162 683B     		subs	r3, r3, #104
 2561 0164 1344     		add	r3, r3, r2
 2562 0166 1A46     		mov	r2, r3
 2563 0168 FFF7FEFF 		bl	add_vectors
 2564 016c 2CE0     		b	.L52
 2565              	.L51:
 173:MAYO.c        **** 			}
 174:MAYO.c        **** 			else {
 175:MAYO.c        **** 				memcpy(P1P1T + M*(j*(N-O)+i), P1 + (M*counter), M);
 2566              		.loc 1 175 24
 2567 016e 07F5D943 		add	r3, r7, #27776
 2568 0172 03F16C03 		add	r3, r3, #108
 2569 0176 1A68     		ldr	r2, [r3]
 2570 0178 1346     		mov	r3, r2
 2571 017a DB00     		lsls	r3, r3, #3
 2572 017c 9B1A     		subs	r3, r3, r2
 2573 017e 9B00     		lsls	r3, r3, #2
 2574 0180 1A44     		add	r2, r2, r3
 2575              		.loc 1 175 30
 2576 0182 07F5D943 		add	r3, r7, #27776
 2577 0186 03F17003 		add	r3, r3, #112
 2578 018a 1B68     		ldr	r3, [r3]
 2579 018c 1A44     		add	r2, r2, r3
 2580              		.loc 1 175 21
 2581 018e 1346     		mov	r3, r2
 2582 0190 1B01     		lsls	r3, r3, #4
 2583 0192 9B1A     		subs	r3, r3, r2
 2584 0194 5B00     		lsls	r3, r3, #1
 2585 0196 1A46     		mov	r2, r3
 2586              		.loc 1 175 5
 2587 0198 07F17803 		add	r3, r7, #120
 2588 019c 683B     		subs	r3, r3, #104
 2589 019e 9818     		adds	r0, r3, r2
 2590              		.loc 1 175 42
 2591 01a0 07F5D943 		add	r3, r7, #27776
 2592 01a4 03F17403 		add	r3, r3, #116
 2593 01a8 1A68     		ldr	r2, [r3]
 2594 01aa 1346     		mov	r3, r2
 2595 01ac 1B01     		lsls	r3, r3, #4
 2596 01ae 9B1A     		subs	r3, r3, r2
 2597 01b0 5B00     		lsls	r3, r3, #1
 2598 01b2 1A46     		mov	r2, r3
 2599              		.loc 1 175 38
 2600 01b4 07F6F843 		addw	r3, r7, #3320
 2601 01b8 A3F6EC43 		subw	r3, r3, #3308
 2602 01bc 1B68     		ldr	r3, [r3]
 2603 01be 1344     		add	r3, r3, r2
 2604              		.loc 1 175 5
 2605 01c0 1E22     		movs	r2, #30
 2606 01c2 1946     		mov	r1, r3
 2607 01c4 FFF7FEFF 		bl	memcpy
 2608              	.L52:
 176:MAYO.c        **** 			}
 177:MAYO.c        **** 			
 178:MAYO.c        **** 			counter++;
 2609              		.loc 1 178 11 discriminator 2
 2610 01c8 07F5D943 		add	r3, r7, #27776
 2611 01cc 03F17403 		add	r3, r3, #116
 2612 01d0 1B68     		ldr	r3, [r3]
 2613 01d2 0133     		adds	r3, r3, #1
 2614 01d4 07F5D942 		add	r2, r7, #27776
 2615 01d8 02F17402 		add	r2, r2, #116
 2616 01dc 1360     		str	r3, [r2]
 166:MAYO.c        **** 		{
 2617              		.loc 1 166 28 discriminator 2
 2618 01de 07F5D943 		add	r3, r7, #27776
 2619 01e2 03F16C03 		add	r3, r3, #108
 2620 01e6 1B68     		ldr	r3, [r3]
 2621 01e8 0133     		adds	r3, r3, #1
 2622 01ea 07F5D942 		add	r2, r7, #27776
 2623 01ee 02F16C02 		add	r2, r2, #108
 2624 01f2 1360     		str	r3, [r2]
 2625              	.L50:
 166:MAYO.c        **** 		{
 2626              		.loc 1 166 3 discriminator 1
 2627 01f4 07F5D943 		add	r3, r7, #27776
 2628 01f8 03F16C03 		add	r3, r3, #108
 2629 01fc 1B68     		ldr	r3, [r3]
 2630 01fe 1C2B     		cmp	r3, #28
 2631 0200 7FF72DAF 		ble	.L53
 2632              	.LBE20:
 164:MAYO.c        **** 	{
 2633              		.loc 1 164 27 discriminator 2
 2634 0204 07F5D943 		add	r3, r7, #27776
 2635 0208 03F17003 		add	r3, r3, #112
 2636 020c 1B68     		ldr	r3, [r3]
 2637 020e 0133     		adds	r3, r3, #1
 2638 0210 07F5D942 		add	r2, r7, #27776
 2639 0214 02F17002 		add	r2, r2, #112
 2640 0218 1360     		str	r3, [r2]
 2641              	.L49:
 164:MAYO.c        **** 	{
 2642              		.loc 1 164 2 discriminator 1
 2643 021a 07F5D943 		add	r3, r7, #27776
 2644 021e 03F17003 		add	r3, r3, #112
 2645 0222 1B68     		ldr	r3, [r3]
 2646 0224 1C2B     		cmp	r3, #28
 2647 0226 7FF70FAF 		ble	.L54
 2648              	.LBE19:
 2649              	.LBB21:
 179:MAYO.c        **** 		}
 180:MAYO.c        **** 	}
 181:MAYO.c        **** 	
 182:MAYO.c        **** 	for (int i = 0; i < N-O; ++i)
 2650              		.loc 1 182 11
 2651 022a 0023     		movs	r3, #0
 2652 022c 07F5D942 		add	r2, r7, #27776
 2653 0230 02F16802 		add	r2, r2, #104
 2654 0234 1360     		str	r3, [r2]
 2655              		.loc 1 182 2
 2656 0236 6AE0     		b	.L55
 2657              	.L59:
 2658              	.LBB22:
 183:MAYO.c        **** 	{
 184:MAYO.c        **** 		// P1PiT*O^t part
 185:MAYO.c        **** 		for (int j = 0; j < O; ++j)
 2659              		.loc 1 185 12
 2660 0238 0023     		movs	r3, #0
 2661 023a 07F5D942 		add	r2, r7, #27776
 2662 023e 02F16402 		add	r2, r2, #100
 2663 0242 1360     		str	r3, [r2]
 2664              		.loc 1 185 3
 2665 0244 51E0     		b	.L56
 2666              	.L58:
 186:MAYO.c        **** 		{
 187:MAYO.c        **** 			if(j==0) trigger=1;
 2667              		.loc 1 187 6
 2668 0246 07F5D943 		add	r3, r7, #27776
 2669 024a 03F16403 		add	r3, r3, #100
 2670 024e 1B68     		ldr	r3, [r3]
 2671 0250 002B     		cmp	r3, #0
 2672 0252 02D1     		bne	.L57
 2673              		.loc 1 187 20 discriminator 1
 2674 0254 384B     		ldr	r3, .L68
 2675 0256 0122     		movs	r2, #1
 2676 0258 1A60     		str	r2, [r3]
 2677              	.L57:
 188:MAYO.c        **** 
 189:MAYO.c        **** 			_linear_combination(P1P1T + (M*i*(N-O)), oil_space + (j*(N-O)), N-O, bilinear_temp + (i*O + j)*M
 2678              		.loc 1 189 36 discriminator 2
 2679 025a 07F5D943 		add	r3, r7, #27776
 2680 025e 03F16803 		add	r3, r3, #104
 2681 0262 1B68     		ldr	r3, [r3]
 2682 0264 40F26632 		movw	r2, #870
 2683 0268 02FB03F3 		mul	r3, r2, r3
 2684 026c 1A46     		mov	r2, r3
 2685              		.loc 1 189 4 discriminator 2
 2686 026e 07F17803 		add	r3, r7, #120
 2687 0272 683B     		subs	r3, r3, #104
 2688 0274 9818     		adds	r0, r3, r2
 2689              		.loc 1 189 59 discriminator 2
 2690 0276 07F5D943 		add	r3, r7, #27776
 2691 027a 03F16403 		add	r3, r3, #100
 2692 027e 1A68     		ldr	r2, [r3]
 2693 0280 1346     		mov	r3, r2
 2694 0282 DB00     		lsls	r3, r3, #3
 2695 0284 9B1A     		subs	r3, r3, r2
 2696 0286 9B00     		lsls	r3, r3, #2
 2697 0288 1344     		add	r3, r3, r2
 2698 028a 1A46     		mov	r2, r3
 2699              		.loc 1 189 4 discriminator 2
 2700 028c 07F6F843 		addw	r3, r7, #3320
 2701 0290 A3F54F63 		sub	r3, r3, #3312
 2702 0294 1B68     		ldr	r3, [r3]
 2703 0296 9918     		adds	r1, r3, r2
 2704              		.loc 1 189 91 discriminator 2
 2705 0298 07F5D943 		add	r3, r7, #27776
 2706 029c 03F16803 		add	r3, r3, #104
 2707 02a0 1A68     		ldr	r2, [r3]
 2708 02a2 1346     		mov	r3, r2
 2709 02a4 5B00     		lsls	r3, r3, #1
 2710 02a6 1A44     		add	r2, r2, r3
 2711              		.loc 1 189 94 discriminator 2
 2712 02a8 07F5D943 		add	r3, r7, #27776
 2713 02ac 03F16403 		add	r3, r3, #100
 2714 02b0 1B68     		ldr	r3, [r3]
 2715 02b2 1A44     		add	r2, r2, r3
 2716              		.loc 1 189 98 discriminator 2
 2717 02b4 1346     		mov	r3, r2
 2718 02b6 1B01     		lsls	r3, r3, #4
 2719 02b8 9B1A     		subs	r3, r3, r2
 2720 02ba 5B00     		lsls	r3, r3, #1
 2721 02bc 1A46     		mov	r2, r3
 2722              		.loc 1 189 4 discriminator 2
 2723 02be 07F5C543 		add	r3, r7, #25216
 2724 02c2 03F12003 		add	r3, r3, #32
 2725 02c6 1344     		add	r3, r3, r2
 2726 02c8 1D22     		movs	r2, #29
 2727 02ca FFF7FEFF 		bl	_linear_combination
 190:MAYO.c        **** 
 191:MAYO.c        **** 			trigger = 0;
 2728              		.loc 1 191 12 discriminator 2
 2729 02ce 1A4B     		ldr	r3, .L68
 2730 02d0 0022     		movs	r2, #0
 2731 02d2 1A60     		str	r2, [r3]
 185:MAYO.c        **** 		{
 2732              		.loc 1 185 26 discriminator 2
 2733 02d4 07F5D943 		add	r3, r7, #27776
 2734 02d8 03F16403 		add	r3, r3, #100
 2735 02dc 1B68     		ldr	r3, [r3]
 2736 02de 0133     		adds	r3, r3, #1
 2737 02e0 07F5D942 		add	r2, r7, #27776
 2738 02e4 02F16402 		add	r2, r2, #100
 2739 02e8 1360     		str	r3, [r2]
 2740              	.L56:
 185:MAYO.c        **** 		{
 2741              		.loc 1 185 3 discriminator 1
 2742 02ea 07F5D943 		add	r3, r7, #27776
 2743 02ee 03F16403 		add	r3, r3, #100
 2744 02f2 1B68     		ldr	r3, [r3]
 2745 02f4 022B     		cmp	r3, #2
 2746 02f6 A6DD     		ble	.L58
 2747              	.LBE22:
 182:MAYO.c        **** 	{
 2748              		.loc 1 182 27 discriminator 2
 2749 02f8 07F5D943 		add	r3, r7, #27776
 2750 02fc 03F16803 		add	r3, r3, #104
 2751 0300 1B68     		ldr	r3, [r3]
 2752 0302 0133     		adds	r3, r3, #1
 2753 0304 07F5D942 		add	r2, r7, #27776
 2754 0308 02F16802 		add	r2, r2, #104
 2755 030c 1360     		str	r3, [r2]
 2756              	.L55:
 182:MAYO.c        **** 	{
 2757              		.loc 1 182 2 discriminator 1
 2758 030e 07F5D943 		add	r3, r7, #27776
 2759 0312 03F16803 		add	r3, r3, #104
 2760 0316 1B68     		ldr	r3, [r3]
 2761 0318 1C2B     		cmp	r3, #28
 2762 031a 8DDD     		ble	.L59
 2763              	.LBE21:
 2764              	.LBB23:
 192:MAYO.c        **** 		}
 193:MAYO.c        **** 
 194:MAYO.c        **** 	}
 195:MAYO.c        **** 
 196:MAYO.c        **** 	for (int i = 0; i < N-O; ++i)
 2765              		.loc 1 196 11
 2766 031c 0023     		movs	r3, #0
 2767 031e 07F5D942 		add	r2, r7, #27776
 2768 0322 02F16002 		add	r2, r2, #96
 2769 0326 1360     		str	r3, [r2]
 2770              		.loc 1 196 2
 2771 0328 77E0     		b	.L60
 2772              	.L63:
 2773              	.LBB24:
 197:MAYO.c        **** 	{
 198:MAYO.c        **** 		// P1' part
 199:MAYO.c        **** 		for (int j = 0; j < O; j++)
 2774              		.loc 1 199 12
 2775 032a 0023     		movs	r3, #0
 2776 032c 07F5D942 		add	r2, r7, #27776
 2777 0330 02F15C02 		add	r2, r2, #92
 2778 0334 1360     		str	r3, [r2]
 2779              		.loc 1 199 3
 2780 0336 5EE0     		b	.L61
 2781              	.L69:
 2782              		.align	2
 2783              	.L68:
 2784 0338 00000000 		.word	trigger
 2785              	.L62:
 200:MAYO.c        **** 		{
 201:MAYO.c        **** 			add_vectors(bilinear_temp + (i*O + j)*M, P1 + M*(counter + i*O + j), bilinear_temp + (i*O + j)*M
 2786              		.loc 1 201 34 discriminator 3
 2787 033c 07F5D943 		add	r3, r7, #27776
 2788 0340 03F16003 		add	r3, r3, #96
 2789 0344 1A68     		ldr	r2, [r3]
 2790 0346 1346     		mov	r3, r2
 2791 0348 5B00     		lsls	r3, r3, #1
 2792 034a 1A44     		add	r2, r2, r3
 2793              		.loc 1 201 37 discriminator 3
 2794 034c 07F5D943 		add	r3, r7, #27776
 2795 0350 03F15C03 		add	r3, r3, #92
 2796 0354 1B68     		ldr	r3, [r3]
 2797 0356 1A44     		add	r2, r2, r3
 2798              		.loc 1 201 41 discriminator 3
 2799 0358 1346     		mov	r3, r2
 2800 035a 1B01     		lsls	r3, r3, #4
 2801 035c 9B1A     		subs	r3, r3, r2
 2802 035e 5B00     		lsls	r3, r3, #1
 2803 0360 1A46     		mov	r2, r3
 2804              		.loc 1 201 4 discriminator 3
 2805 0362 07F5C543 		add	r3, r7, #25216
 2806 0366 03F12003 		add	r3, r3, #32
 2807 036a 9818     		adds	r0, r3, r2
 2808              		.loc 1 201 64 discriminator 3
 2809 036c 07F5D943 		add	r3, r7, #27776
 2810 0370 03F16003 		add	r3, r3, #96
 2811 0374 1A68     		ldr	r2, [r3]
 2812 0376 1346     		mov	r3, r2
 2813 0378 5B00     		lsls	r3, r3, #1
 2814 037a 1A44     		add	r2, r2, r3
 2815              		.loc 1 201 61 discriminator 3
 2816 037c 07F5D943 		add	r3, r7, #27776
 2817 0380 03F17403 		add	r3, r3, #116
 2818 0384 1B68     		ldr	r3, [r3]
 2819 0386 1A44     		add	r2, r2, r3
 2820              		.loc 1 201 67 discriminator 3
 2821 0388 07F5D943 		add	r3, r7, #27776
 2822 038c 03F15C03 		add	r3, r3, #92
 2823 0390 1B68     		ldr	r3, [r3]
 2824 0392 1A44     		add	r2, r2, r3
 2825              		.loc 1 201 51 discriminator 3
 2826 0394 1346     		mov	r3, r2
 2827 0396 1B01     		lsls	r3, r3, #4
 2828 0398 9B1A     		subs	r3, r3, r2
 2829 039a 5B00     		lsls	r3, r3, #1
 2830 039c 1A46     		mov	r2, r3
 2831              		.loc 1 201 4 discriminator 3
 2832 039e 07F6F843 		addw	r3, r7, #3320
 2833 03a2 A3F6EC43 		subw	r3, r3, #3308
 2834 03a6 1B68     		ldr	r3, [r3]
 2835 03a8 9918     		adds	r1, r3, r2
 2836              		.loc 1 201 91 discriminator 3
 2837 03aa 07F5D943 		add	r3, r7, #27776
 2838 03ae 03F16003 		add	r3, r3, #96
 2839 03b2 1A68     		ldr	r2, [r3]
 2840 03b4 1346     		mov	r3, r2
 2841 03b6 5B00     		lsls	r3, r3, #1
 2842 03b8 1A44     		add	r2, r2, r3
 2843              		.loc 1 201 94 discriminator 3
 2844 03ba 07F5D943 		add	r3, r7, #27776
 2845 03be 03F15C03 		add	r3, r3, #92
 2846 03c2 1B68     		ldr	r3, [r3]
 2847 03c4 1A44     		add	r2, r2, r3
 2848              		.loc 1 201 98 discriminator 3
 2849 03c6 1346     		mov	r3, r2
 2850 03c8 1B01     		lsls	r3, r3, #4
 2851 03ca 9B1A     		subs	r3, r3, r2
 2852 03cc 5B00     		lsls	r3, r3, #1
 2853 03ce 1A46     		mov	r2, r3
 2854              		.loc 1 201 4 discriminator 3
 2855 03d0 07F5C543 		add	r3, r7, #25216
 2856 03d4 03F12003 		add	r3, r3, #32
 2857 03d8 1344     		add	r3, r3, r2
 2858 03da 1A46     		mov	r2, r3
 2859 03dc FFF7FEFF 		bl	add_vectors
 199:MAYO.c        **** 		{
 2860              		.loc 1 199 27 discriminator 3
 2861 03e0 07F5D943 		add	r3, r7, #27776
 2862 03e4 03F15C03 		add	r3, r3, #92
 2863 03e8 1B68     		ldr	r3, [r3]
 2864 03ea 0133     		adds	r3, r3, #1
 2865 03ec 07F5D942 		add	r2, r7, #27776
 2866 03f0 02F15C02 		add	r2, r2, #92
 2867 03f4 1360     		str	r3, [r2]
 2868              	.L61:
 199:MAYO.c        **** 		{
 2869              		.loc 1 199 3 discriminator 1
 2870 03f6 07F5D943 		add	r3, r7, #27776
 2871 03fa 03F15C03 		add	r3, r3, #92
 2872 03fe 1B68     		ldr	r3, [r3]
 2873 0400 022B     		cmp	r3, #2
 2874 0402 9BDD     		ble	.L62
 2875              	.LBE24:
 196:MAYO.c        **** 	{
 2876              		.loc 1 196 27 discriminator 2
 2877 0404 07F5D943 		add	r3, r7, #27776
 2878 0408 03F16003 		add	r3, r3, #96
 2879 040c 1B68     		ldr	r3, [r3]
 2880 040e 0133     		adds	r3, r3, #1
 2881 0410 07F5D942 		add	r2, r7, #27776
 2882 0414 02F16002 		add	r2, r2, #96
 2883 0418 1360     		str	r3, [r2]
 2884              	.L60:
 196:MAYO.c        **** 	{
 2885              		.loc 1 196 2 discriminator 1
 2886 041a 07F5D943 		add	r3, r7, #27776
 2887 041e 03F16003 		add	r3, r3, #96
 2888 0422 1B68     		ldr	r3, [r3]
 2889 0424 1C2B     		cmp	r3, #28
 2890 0426 80DD     		ble	.L63
 2891              	.LBE23:
 2892              	.LBB25:
 202:MAYO.c        **** 		}
 203:MAYO.c        **** 	}
 204:MAYO.c        **** 
 205:MAYO.c        **** 	// transpose bilinear_temp
 206:MAYO.c        **** 	for (int i = 0; i < (N-O); ++i)
 2893              		.loc 1 206 11
 2894 0428 0023     		movs	r3, #0
 2895 042a 07F5D942 		add	r2, r7, #27776
 2896 042e 02F15802 		add	r2, r2, #88
 2897 0432 1360     		str	r3, [r2]
 2898              		.loc 1 206 2
 2899 0434 5AE0     		b	.L64
 2900              	.L67:
 2901              	.LBB26:
 207:MAYO.c        **** 	{
 208:MAYO.c        **** 		for (int j = 0; j < O; ++j)
 2902              		.loc 1 208 12
 2903 0436 0023     		movs	r3, #0
 2904 0438 07F5D942 		add	r2, r7, #27776
 2905 043c 02F15402 		add	r2, r2, #84
 2906 0440 1360     		str	r3, [r2]
 2907              		.loc 1 208 3
 2908 0442 41E0     		b	.L65
 2909              	.L66:
 209:MAYO.c        **** 		{
 210:MAYO.c        **** 			memcpy(bilinear + M*(j*(N-O) + i), bilinear_temp + (i*O + j)*M, M);
 2910              		.loc 1 210 26 discriminator 3
 2911 0444 07F5D943 		add	r3, r7, #27776
 2912 0448 03F15403 		add	r3, r3, #84
 2913 044c 1A68     		ldr	r2, [r3]
 2914 044e 1346     		mov	r3, r2
 2915 0450 DB00     		lsls	r3, r3, #3
 2916 0452 9B1A     		subs	r3, r3, r2
 2917 0454 9B00     		lsls	r3, r3, #2
 2918 0456 1A44     		add	r2, r2, r3
 2919              		.loc 1 210 33 discriminator 3
 2920 0458 07F5D943 		add	r3, r7, #27776
 2921 045c 03F15803 		add	r3, r3, #88
 2922 0460 1B68     		ldr	r3, [r3]
 2923 0462 1A44     		add	r2, r2, r3
 2924              		.loc 1 210 23 discriminator 3
 2925 0464 1346     		mov	r3, r2
 2926 0466 1B01     		lsls	r3, r3, #4
 2927 0468 9B1A     		subs	r3, r3, r2
 2928 046a 5B00     		lsls	r3, r3, #1
 2929 046c 1A46     		mov	r2, r3
 2930              		.loc 1 210 20 discriminator 3
 2931 046e 07F6F843 		addw	r3, r7, #3320
 2932 0472 A3F6F443 		subw	r3, r3, #3316
 2933 0476 1B68     		ldr	r3, [r3]
 2934 0478 9818     		adds	r0, r3, r2
 2935              		.loc 1 210 57 discriminator 3
 2936 047a 07F5D943 		add	r3, r7, #27776
 2937 047e 03F15803 		add	r3, r3, #88
 2938 0482 1A68     		ldr	r2, [r3]
 2939 0484 1346     		mov	r3, r2
 2940 0486 5B00     		lsls	r3, r3, #1
 2941 0488 1A44     		add	r2, r2, r3
 2942              		.loc 1 210 60 discriminator 3
 2943 048a 07F5D943 		add	r3, r7, #27776
 2944 048e 03F15403 		add	r3, r3, #84
 2945 0492 1B68     		ldr	r3, [r3]
 2946 0494 1A44     		add	r2, r2, r3
 2947              		.loc 1 210 64 discriminator 3
 2948 0496 1346     		mov	r3, r2
 2949 0498 1B01     		lsls	r3, r3, #4
 2950 049a 9B1A     		subs	r3, r3, r2
 2951 049c 5B00     		lsls	r3, r3, #1
 2952 049e 1A46     		mov	r2, r3
 2953              		.loc 1 210 4 discriminator 3
 2954 04a0 07F5C543 		add	r3, r7, #25216
 2955 04a4 03F12003 		add	r3, r3, #32
 2956 04a8 1344     		add	r3, r3, r2
 2957 04aa 1E22     		movs	r2, #30
 2958 04ac 1946     		mov	r1, r3
 2959 04ae FFF7FEFF 		bl	memcpy
 208:MAYO.c        **** 		{
 2960              		.loc 1 208 26 discriminator 3
 2961 04b2 07F5D943 		add	r3, r7, #27776
 2962 04b6 03F15403 		add	r3, r3, #84
 2963 04ba 1B68     		ldr	r3, [r3]
 2964 04bc 0133     		adds	r3, r3, #1
 2965 04be 07F5D942 		add	r2, r7, #27776
 2966 04c2 02F15402 		add	r2, r2, #84
 2967 04c6 1360     		str	r3, [r2]
 2968              	.L65:
 208:MAYO.c        **** 		{
 2969              		.loc 1 208 3 discriminator 1
 2970 04c8 07F5D943 		add	r3, r7, #27776
 2971 04cc 03F15403 		add	r3, r3, #84
 2972 04d0 1B68     		ldr	r3, [r3]
 2973 04d2 022B     		cmp	r3, #2
 2974 04d4 B6DD     		ble	.L66
 2975              	.LBE26:
 206:MAYO.c        **** 	{
 2976              		.loc 1 206 29 discriminator 2
 2977 04d6 07F5D943 		add	r3, r7, #27776
 2978 04da 03F15803 		add	r3, r3, #88
 2979 04de 1B68     		ldr	r3, [r3]
 2980 04e0 0133     		adds	r3, r3, #1
 2981 04e2 07F5D942 		add	r2, r7, #27776
 2982 04e6 02F15802 		add	r2, r2, #88
 2983 04ea 1360     		str	r3, [r2]
 2984              	.L64:
 206:MAYO.c        **** 	{
 2985              		.loc 1 206 2 discriminator 1
 2986 04ec 07F5D943 		add	r3, r7, #27776
 2987 04f0 03F15803 		add	r3, r3, #88
 2988 04f4 1B68     		ldr	r3, [r3]
 2989 04f6 1C2B     		cmp	r3, #28
 2990 04f8 9DDD     		ble	.L67
 2991              	.LBE25:
 211:MAYO.c        **** 		}
 212:MAYO.c        **** 	}
 213:MAYO.c        **** }
 2992              		.loc 1 213 1
 2993 04fa 00BF     		nop
 2994 04fc 00BF     		nop
 2995 04fe 07F5D947 		add	r7, r7, #27776
 2996 0502 7837     		adds	r7, r7, #120
 2997              	.LCFI31:
 2998              		.cfi_def_cfa_offset 8
 2999 0504 BD46     		mov	sp, r7
 3000              	.LCFI32:
 3001              		.cfi_def_cfa_register 13
 3002              		@ sp needed
 3003 0506 80BD     		pop	{r7, pc}
 3004              		.cfi_endproc
 3005              	.LFE5:
 3007              		.section	.text.mayo_trace,"ax",%progbits
 3008              		.align	1
 3009              		.global	mayo_trace
 3010              		.syntax unified
 3011              		.thumb
 3012              		.thumb_func
 3013              		.fpu softvfp
 3015              	mayo_trace:
 3016              	.LFB6:
 214:MAYO.c        **** 
 215:MAYO.c        **** 
 216:MAYO.c        **** 
 217:MAYO.c        **** 
 218:MAYO.c        **** // uint8_t uov_trace(uint8_t *in)
 219:MAYO.c        **** // {
 220:MAYO.c        **** 
 221:MAYO.c        **** // uint8_t uov_trace(uint8_t* pw, uint8_t len)
 222:MAYO.c        **** uint8_t mayo_trace()
 223:MAYO.c        **** {
 3017              		.loc 1 223 1
 3018              		.cfi_startproc
 3019              		@ args = 0, pretend = 0, frame = 2920
 3020              		@ frame_needed = 1, uses_anonymous_args = 0
 3021 0000 80B5     		push	{r7, lr}
 3022              	.LCFI33:
 3023              		.cfi_def_cfa_offset 8
 3024              		.cfi_offset 7, -8
 3025              		.cfi_offset 14, -4
 3026 0002 ADF6683D 		subw	sp, sp, #2920
 3027              	.LCFI34:
 3028              		.cfi_def_cfa_offset 2928
 3029 0006 00AF     		add	r7, sp, #0
 3030              	.LCFI35:
 3031              		.cfi_def_cfa_register 7
 224:MAYO.c        ****     // C = 10;
 225:MAYO.c        ****     unsigned char out[M] = {0};
 3032              		.loc 1 225 19
 3033 0008 0023     		movs	r3, #0
 3034 000a C7F8483B 		str	r3, [r7, #2888]
 3035 000e 07F64C33 		addw	r3, r7, #2892
 3036 0012 0022     		movs	r2, #0
 3037 0014 1A60     		str	r2, [r3]
 3038 0016 5A60     		str	r2, [r3, #4]
 3039 0018 9A60     		str	r2, [r3, #8]
 3040 001a DA60     		str	r2, [r3, #12]
 3041 001c 1A61     		str	r2, [r3, #16]
 3042 001e 5A61     		str	r2, [r3, #20]
 3043 0020 1A83     		strh	r2, [r3, #24]	@ movhi
 226:MAYO.c        **** 	unsigned char bilinear[M*(N-O)*O] = {0};
 3044              		.loc 1 226 16
 3045 0022 07F66833 		addw	r3, r7, #2920
 3046 0026 A3F65423 		subw	r3, r3, #2644
 3047 002a 0022     		movs	r2, #0
 3048 002c 1A60     		str	r2, [r3]
 3049 002e 0433     		adds	r3, r3, #4
 3050 0030 40F62E22 		movw	r2, #2606
 3051 0034 0021     		movs	r1, #0
 3052 0036 1846     		mov	r0, r3
 3053 0038 FFF7FEFF 		bl	memset
 227:MAYO.c        **** 	unsigned char P2[M*O*O] = {0};
 3054              		.loc 1 227 16
 3055 003c 07F66833 		addw	r3, r7, #2920
 3056 0040 A3F66433 		subw	r3, r3, #2916
 3057 0044 0022     		movs	r2, #0
 3058 0046 1A60     		str	r2, [r3]
 3059 0048 0433     		adds	r3, r3, #4
 3060 004a 4FF48572 		mov	r2, #266
 3061 004e 0021     		movs	r1, #0
 3062 0050 1846     		mov	r0, r3
 3063 0052 FFF7FEFF 		bl	memset
 228:MAYO.c        **** 
 229:MAYO.c        **** 
 230:MAYO.c        ****     // define P1 in .h file, hardcoded
 231:MAYO.c        ****     //const unsigned char *ptr_P1;
 232:MAYO.c        ****     //ptr_P1 = P1;
 233:MAYO.c        **** 
 234:MAYO.c        **** 
 235:MAYO.c        ****     //onst unsigned char *ptr_oilspace;
 236:MAYO.c        ****     //ptr_oilspace = oilspace;
 237:MAYO.c        **** 
 238:MAYO.c        **** 
 239:MAYO.c        ****     //for (_ in range(10))
 240:MAYO.c        ****     //{
 241:MAYO.c        ****     //_linear_combination(P1, oilspace, N-O, out);
 242:MAYO.c        ****     //compute_bilinear_part(ptr_P1, oilspace, bilinear);
 243:MAYO.c        **** 	computeP2(oilspace, P1, P2);
 3064              		.loc 1 243 2
 3065 0056 3B1D     		adds	r3, r7, #4
 3066 0058 1A46     		mov	r2, r3
 3067 005a 0649     		ldr	r1, .L72
 3068 005c 0648     		ldr	r0, .L72+4
 3069 005e FFF7FEFF 		bl	computeP2
 244:MAYO.c        ****     //}
 245:MAYO.c        ****     
 246:MAYO.c        ****     
 247:MAYO.c        ****     // send 'e' for end of trace
 248:MAYO.c        ****     putch('e');
 3070              		.loc 1 248 5
 3071 0062 6520     		movs	r0, #101
 3072 0064 FFF7FEFF 		bl	putch
 249:MAYO.c        ****     
 250:MAYO.c        ****     //putString(y, _O1_BYTE);
 251:MAYO.c        **** 
 252:MAYO.c        ****     return 1;
 3073              		.loc 1 252 12
 3074 0068 0123     		movs	r3, #1
 253:MAYO.c        **** }
 3075              		.loc 1 253 1
 3076 006a 1846     		mov	r0, r3
 3077 006c 07F66837 		addw	r7, r7, #2920
 3078              	.LCFI36:
 3079              		.cfi_def_cfa_offset 8
 3080 0070 BD46     		mov	sp, r7
 3081              	.LCFI37:
 3082              		.cfi_def_cfa_register 13
 3083              		@ sp needed
 3084 0072 80BD     		pop	{r7, pc}
 3085              	.L73:
 3086              		.align	2
 3087              	.L72:
 3088 0074 00000000 		.word	P1
 3089 0078 00000000 		.word	oilspace
 3090              		.cfi_endproc
 3091              	.LFE6:
 3093              		.section	.rodata
 3094              		.align	2
 3095              	.LC0:
 3096 0000 48656C6C 		.ascii	"Hello from the other side!\000"
 3096      6F206672 
 3096      6F6D2074 
 3096      6865206F 
 3096      74686572 
 3097              		.section	.text.main,"ax",%progbits
 3098              		.align	1
 3099              		.global	main
 3100              		.syntax unified
 3101              		.thumb
 3102              		.thumb_func
 3103              		.fpu softvfp
 3105              	main:
 3106              	.LFB7:
 254:MAYO.c        **** 
 255:MAYO.c        **** int main(void)
 256:MAYO.c        **** {
 3107              		.loc 1 256 1
 3108              		.cfi_startproc
 3109              		@ args = 0, pretend = 0, frame = 32
 3110              		@ frame_needed = 1, uses_anonymous_args = 0
 3111 0000 B0B5     		push	{r4, r5, r7, lr}
 3112              	.LCFI38:
 3113              		.cfi_def_cfa_offset 16
 3114              		.cfi_offset 4, -16
 3115              		.cfi_offset 5, -12
 3116              		.cfi_offset 7, -8
 3117              		.cfi_offset 14, -4
 3118 0002 88B0     		sub	sp, sp, #32
 3119              	.LCFI39:
 3120              		.cfi_def_cfa_offset 48
 3121 0004 00AF     		add	r7, sp, #0
 3122              	.LCFI40:
 3123              		.cfi_def_cfa_register 7
 257:MAYO.c        ****     platform_init();
 3124              		.loc 1 257 5
 3125 0006 FFF7FEFF 		bl	platform_init
 258:MAYO.c        ****     init_uart();
 3126              		.loc 1 258 5
 3127 000a FFF7FEFF 		bl	init_uart
 259:MAYO.c        ****     trigger_setup();
 3128              		.loc 1 259 5
 3129 000e FFF7FEFF 		bl	trigger_setup
 260:MAYO.c        **** 
 261:MAYO.c        ****     unsigned char Hello[] = "Hello from the other side!";
 3130              		.loc 1 261 19
 3131 0012 0C4B     		ldr	r3, .L76
 3132 0014 3C1D     		adds	r4, r7, #4
 3133 0016 1D46     		mov	r5, r3
 3134 0018 0FCD     		ldmia	r5!, {r0, r1, r2, r3}
 3135 001a 0FC4     		stmia	r4!, {r0, r1, r2, r3}
 3136 001c 95E80700 		ldm	r5, {r0, r1, r2}
 3137 0020 03C4     		stmia	r4!, {r0, r1}
 3138 0022 2280     		strh	r2, [r4]	@ movhi
 3139 0024 0234     		adds	r4, r4, #2
 3140 0026 130C     		lsrs	r3, r2, #16
 3141 0028 2370     		strb	r3, [r4]
 262:MAYO.c        ****     putString(Hello, 26);
 3142              		.loc 1 262 5
 3143 002a 3B1D     		adds	r3, r7, #4
 3144 002c 1A21     		movs	r1, #26
 3145 002e 1846     		mov	r0, r3
 3146 0030 FFF7FEFF 		bl	putString
 263:MAYO.c        **** 
 264:MAYO.c        ****     simpleserial_init();
 3147              		.loc 1 264 5
 3148 0034 FFF7FEFF 		bl	simpleserial_init
 265:MAYO.c        **** 
 266:MAYO.c        ****     //for n in range(256)
 267:MAYO.c        ****     mayo_trace();
 3149              		.loc 1 267 5
 3150 0038 FFF7FEFF 		bl	mayo_trace
 3151              	.L75:
 268:MAYO.c        **** 
 269:MAYO.c        **** 
 270:MAYO.c        ****     while (1)
 271:MAYO.c        ****          simpleserial_get();
 3152              		.loc 1 271 10 discriminator 1
 3153 003c FFF7FEFF 		bl	simpleserial_get
 3154 0040 FCE7     		b	.L75
 3155              	.L77:
 3156 0042 00BF     		.align	2
 3157              	.L76:
 3158 0044 00000000 		.word	.LC0
 3159              		.cfi_endproc
 3160              	.LFE7:
 3162              		.text
 3163              	.Letext0:
 3164              		.file 2 "/usr/lib/gcc/arm-none-eabi/10.3.1/include/stdint.h"
 3165              		.file 3 "MAYO.h"
DEFINED SYMBOLS
                            *ABS*:0000000000000000 MAYO.c
     /tmp/ccpoI8pa.s:20     .data:0000000000000000 P1
     /tmp/ccpoI8pa.s:17     .data:0000000000000000 $d
     /tmp/ccpoI8pa.s:1231   .data:0000000000003d2c oilspace
     /tmp/ccpoI8pa.s:1244   .bss:0000000000000000 trigger
     /tmp/ccpoI8pa.s:1241   .bss:0000000000000000 $d
     /tmp/ccpoI8pa.s:1247   .text.putString:0000000000000000 $t
     /tmp/ccpoI8pa.s:1255   .text.putString:0000000000000000 putString
     /tmp/ccpoI8pa.s:1317   .text.add_vectors:0000000000000000 $t
     /tmp/ccpoI8pa.s:1324   .text.add_vectors:0000000000000000 add_vectors
     /tmp/ccpoI8pa.s:1411   .text.add_vectors:0000000000000060 $d
     /tmp/ccpoI8pa.s:1416   .text.negate:0000000000000000 $t
     /tmp/ccpoI8pa.s:1423   .text.negate:0000000000000000 negate
     /tmp/ccpoI8pa.s:1503   .text.negate:0000000000000058 $d
     /tmp/ccpoI8pa.s:1508   .text._linear_combination:0000000000000000 $t
     /tmp/ccpoI8pa.s:1515   .text._linear_combination:0000000000000000 _linear_combination
     /tmp/ccpoI8pa.s:1716   .text._linear_combination:0000000000000138 $d
     /tmp/ccpoI8pa.s:1722   .text.computeP2:0000000000000000 $t
     /tmp/ccpoI8pa.s:1729   .text.computeP2:0000000000000000 computeP2
     /tmp/ccpoI8pa.s:2187   .text.computeP2:00000000000003c4 $d
     /tmp/ccpoI8pa.s:2190   .text.computeP2:00000000000003c8 $t
     /tmp/ccpoI8pa.s:2374   .text.compute_bilinear_part:0000000000000000 $t
     /tmp/ccpoI8pa.s:2381   .text.compute_bilinear_part:0000000000000000 compute_bilinear_part
     /tmp/ccpoI8pa.s:2784   .text.compute_bilinear_part:0000000000000338 $d
     /tmp/ccpoI8pa.s:2787   .text.compute_bilinear_part:000000000000033c $t
     /tmp/ccpoI8pa.s:3008   .text.mayo_trace:0000000000000000 $t
     /tmp/ccpoI8pa.s:3015   .text.mayo_trace:0000000000000000 mayo_trace
     /tmp/ccpoI8pa.s:3088   .text.mayo_trace:0000000000000074 $d
     /tmp/ccpoI8pa.s:3094   .rodata:0000000000000000 $d
     /tmp/ccpoI8pa.s:3098   .text.main:0000000000000000 $t
     /tmp/ccpoI8pa.s:3105   .text.main:0000000000000000 main
     /tmp/ccpoI8pa.s:3158   .text.main:0000000000000044 $d

UNDEFINED SYMBOLS
putch
memset
getch
trigger_high
trigger_low
memcpy
platform_init
init_uart
trigger_setup
simpleserial_init
simpleserial_get
